
64974d40-92cd-4714-9e8f-442f3a4db3af.elf:     file format elf64-littleaarch64
64974d40-92cd-4714-9e8f-442f3a4db3af.elf
architecture: aarch64, flags 0x00000150:
HAS_SYMS, DYNAMIC, D_PAGED
start address 0x0000000000001668

Program Header:
    LOAD off    0x0000000000001000 vaddr 0x0000000000000000 paddr 0x0000000000000000 align 2**12
         filesz 0x0000000000014e30 memsz 0x0000000000014e30 flags r-x
    LOAD off    0x0000000000016000 vaddr 0x0000000000015000 paddr 0x0000000000015000 align 2**12
         filesz 0x00000000000009ec memsz 0x0000000000015ea0 flags rw-
 DYNAMIC off    0x0000000000016000 vaddr 0x0000000000015000 paddr 0x0000000000015000 align 2**3
         filesz 0x0000000000000110 memsz 0x0000000000000110 flags rw-
   STACK off    0x0000000000000000 vaddr 0x0000000000000000 paddr 0x0000000000000000 align 2**4
         filesz 0x0000000000000000 memsz 0x0000000000000000 flags rw-

Dynamic Section:
  HASH                 0x0000000000014488
  GNU_HASH             0x0000000000014398
  STRTAB               0x0000000000014458
  SYMTAB               0x00000000000143c8
  STRSZ                0x000000000000002e
  SYMENT               0x0000000000000018
  DEBUG                0x0000000000000000
  RELA                 0x00000000000144b8
  RELASZ               0x0000000000000af8
  RELAENT              0x0000000000000018
  FLAGS_1              0x0000000008000000
  RELACOUNT            0x0000000000000065
private flags = 0:

Sections:
Idx Name          Size      VMA               LMA               File off  Algn
  0 .ta_head      00000020  0000000000000000  0000000000000000  00001000  2**3
                  CONTENTS, ALLOC, LOAD, READONLY, DATA
  1 .text         0000ea24  0000000000000020  0000000000000020  00001020  2**3
                  CONTENTS, ALLOC, LOAD, READONLY, CODE
  2 .eh_frame     00002dcc  000000000000ea48  000000000000ea48  0000fa48  2**3
                  CONTENTS, ALLOC, LOAD, READONLY, DATA
  3 .rodata       00002b7a  0000000000011818  0000000000011818  00012818  2**3
                  CONTENTS, ALLOC, LOAD, READONLY, DATA
  4 .gnu.hash     00000030  0000000000014398  0000000000014398  00015398  2**3
                  CONTENTS, ALLOC, LOAD, READONLY, DATA
  5 .dynsym       00000090  00000000000143c8  00000000000143c8  000153c8  2**3
                  CONTENTS, ALLOC, LOAD, READONLY, DATA
  6 .dynstr       0000002e  0000000000014458  0000000000014458  00015458  2**0
                  CONTENTS, ALLOC, LOAD, READONLY, DATA
  7 .hash         0000002c  0000000000014488  0000000000014488  00015488  2**3
                  CONTENTS, ALLOC, LOAD, READONLY, DATA
  8 .rela.dyn     00000978  00000000000144b8  00000000000144b8  000154b8  2**3
                  CONTENTS, ALLOC, LOAD, READONLY, DATA
  9 .dynamic      00000110  0000000000015000  0000000000015000  00016000  2**3
                  CONTENTS, ALLOC, LOAD, DATA
 10 .got          000000a0  0000000000015110  0000000000015110  00016110  2**3
                  CONTENTS, ALLOC, LOAD, DATA
 11 .rela.got     00000180  00000000000151b0  00000000000151b0  000161b0  2**3
                  CONTENTS, ALLOC, LOAD, READONLY, DATA
 12 .data         000006bc  0000000000015330  0000000000015330  00016330  2**3
                  CONTENTS, ALLOC, LOAD, DATA
 13 .bss          000154b0  00000000000159f0  00000000000159f0  000169ec  2**3
                  ALLOC
 14 .debug_info   0001eded  0000000000000000  0000000000000000  000169ec  2**0
                  CONTENTS, READONLY, DEBUGGING, OCTETS
 15 .debug_abbrev 0000543d  0000000000000000  0000000000000000  000357d9  2**0
                  CONTENTS, READONLY, DEBUGGING, OCTETS
 16 .debug_loc    0002db6b  0000000000000000  0000000000000000  0003ac16  2**0
                  CONTENTS, READONLY, DEBUGGING, OCTETS
 17 .debug_aranges 00000ad0  0000000000000000  0000000000000000  00068790  2**4
                  CONTENTS, READONLY, DEBUGGING, OCTETS
 18 .debug_ranges 00001e60  0000000000000000  0000000000000000  00069260  2**4
                  CONTENTS, READONLY, DEBUGGING, OCTETS
 19 .debug_macro  0001c7d8  0000000000000000  0000000000000000  0006b0c0  2**0
                  CONTENTS, READONLY, DEBUGGING, OCTETS
 20 .debug_line   0001276d  0000000000000000  0000000000000000  00087898  2**0
                  CONTENTS, READONLY, DEBUGGING, OCTETS
 21 .debug_str    0001b06c  0000000000000000  0000000000000000  0009a005  2**0
                  CONTENTS, READONLY, DEBUGGING, OCTETS
 22 .comment      00000084  0000000000000000  0000000000000000  000b5071  2**0
                  CONTENTS, READONLY
SYMBOL TABLE:
0000000000000000 l    d  .ta_head	0000000000000000 .ta_head
0000000000000020 l    d  .text	0000000000000000 .text
000000000000ea48 l    d  .eh_frame	0000000000000000 .eh_frame
0000000000011818 l    d  .rodata	0000000000000000 .rodata
0000000000014398 l    d  .gnu.hash	0000000000000000 .gnu.hash
00000000000143c8 l    d  .dynsym	0000000000000000 .dynsym
0000000000014458 l    d  .dynstr	0000000000000000 .dynstr
0000000000014488 l    d  .hash	0000000000000000 .hash
00000000000144b8 l    d  .rela.dyn	0000000000000000 .rela.dyn
0000000000015000 l    d  .dynamic	0000000000000000 .dynamic
0000000000015110 l    d  .got	0000000000000000 .got
00000000000151b0 l    d  .rela.got	0000000000000000 .rela.got
0000000000015330 l    d  .data	0000000000000000 .data
00000000000159f0 l    d  .bss	0000000000000000 .bss
0000000000000000 l    d  .debug_info	0000000000000000 .debug_info
0000000000000000 l    d  .debug_abbrev	0000000000000000 .debug_abbrev
0000000000000000 l    d  .debug_loc	0000000000000000 .debug_loc
0000000000000000 l    d  .debug_aranges	0000000000000000 .debug_aranges
0000000000000000 l    d  .debug_ranges	0000000000000000 .debug_ranges
0000000000000000 l    d  .debug_macro	0000000000000000 .debug_macro
0000000000000000 l    d  .debug_line	0000000000000000 .debug_line
0000000000000000 l    d  .debug_str	0000000000000000 .debug_str
0000000000000000 l    d  .comment	0000000000000000 .comment
0000000000000000 l    df *ABS*	0000000000000000 user_ta_header.c
0000000000011820 l     O .rodata	0000000000000004 __compound_literal.5
0000000000011824 l     O .rodata	0000000000000004 __compound_literal.4
0000000000011828 l     O .rodata	0000000000000004 __compound_literal.3
000000000001182c l     O .rodata	0000000000000001 __compound_literal.2
000000000001182d l     O .rodata	0000000000000001 __compound_literal.1
000000000001182e l     O .rodata	0000000000000001 __compound_literal.0
0000000000000000 l    df *ABS*	0000000000000000 memcpy.c
0000000000000000 l    df *ABS*	0000000000000000 ops_ta.c
000000000000010c l     F .text	0000000000000148 gcm_demo.isra.0.part.0
0000000000018c28 l     O .bss	0000000000000004 counter.4845
000000000001247d l     O .rodata	0000000000000009 __func__.4855
0000000000012486 l     O .rodata	0000000000000014 __func__.4824
000000000001249a l     O .rodata	0000000000000015 __func__.4828
00000000000124af l     O .rodata	0000000000000019 __func__.4835
00000000000124c8 l     O .rodata	000000000000001a __func__.4839
00000000000124e2 l     O .rodata	000000000000000e __func__.4876
00000000000124f0 l     O .rodata	000000000000000e __func__.4885
00000000000124fe l     O .rodata	000000000000000a __func__.4846
0000000000012508 l     O .rodata	000000000000000a __func__.4864
0000000000000000 l    df *ABS*	0000000000000000 crypto.c
00000000000159cc l     O .data	0000000000000020 enc_key
00000000000159f0 l     O .bss	0000000000000001 inited
00000000000159f8 l     O .bss	00000000000001a0 aes
0000000000000000 l    df *ABS*	0000000000000000 enc_float_ops.c
0000000000000000 l    df *ABS*	0000000000000000 enc_timestamp_ops.c
0000000000000000 l    df *ABS*	0000000000000000 enc_int_ops.c
0000000000000000 l    df *ABS*	0000000000000000 enc_ops.c
0000000000000000 l    df *ABS*	0000000000000000 enc_text_ops.c
0000000000000000 l    df *ABS*	0000000000000000 stack_check.c
0000000000000000 l    df *ABS*	0000000000000000 strcmp.c
0000000000000000 l    df *ABS*	0000000000000000 strlen.c
0000000000000000 l    df *ABS*	0000000000000000 trace.c
00000000000135c1 l     O .rodata	0000000000000005 lvl_strs.3567
0000000000000000 l    df *ABS*	0000000000000000 snprintk.c
0000000000001ab0 l     F .text	0000000000000bac kprintf.constprop.0
00000000000125d2 l     O .rodata	0000000000000011 HEXDIGITS
00000000000125e3 l     O .rodata	0000000000000011 hexdigits
0000000000000000 l    df *ABS*	0000000000000000 memchr.c
0000000000000000 l    df *ABS*	0000000000000000 assert.c
0000000000000000 l    df *ABS*	0000000000000000 trace_ext.c
0000000000000000 l    df *ABS*	0000000000000000 utee_syscalls_a64.o
0000000000000000 l    df *ABS*	0000000000000000 user_ta_entry.c
0000000000002b4c l     F .text	00000000000000b0 _get_fn_array
0000000000002bfc l     F .text	000000000000005c _fini_iterate_phdr_cb
0000000000002c58 l     F .text	0000000000000028 ta_header_get_session
0000000000002c80 l     F .text	000000000000006c to_utee_params
0000000000002cec l     F .text	0000000000000060 from_utee_params
0000000000002d4c l     F .text	0000000000000094 _init_iterate_phdr_cb
0000000000002de0 l     F .text	0000000000000014 ta_header_save_params.part.0
0000000000002f28 l     F .text	0000000000000098 ta_header_remove_session
000000000001363e l     O .rodata	0000000000000016 __func__.4871
0000000000015b98 l     O .bss	0000000000000008 _num_mod_init
0000000000015ba0 l     O .bss	0000000000000001 init_done
0000000000015410 l     O .data	0000000000000010 ta_sessions
0000000000015420 l     O .data	0000000000000010 __phdr_info_head
0000000000000000 l    df *ABS*	0000000000000000 abort.c
0000000000000000 l    df *ABS*	0000000000000000 tee_api.c
00000000000031e8 l     F .text	00000000000000ac update_out_param
0000000000003354 l     F .text	00000000000001d0 copy_param
000000000001366c l     O .rodata	000000000000000b __func__.4829
0000000000015c00 l     O .bss	0000000000000008 tee_api_instance_data
0000000000000000 l    df *ABS*	0000000000000000 tee_api_arith_mpi.c
0000000000003938 l     F .text	0000000000000030 api_panic
0000000000003968 l     F .text	0000000000000030 mpi_panic
0000000000003998 l     F .text	0000000000000098 get_mpi
0000000000003a30 l     F .text	0000000000000064 copy_mpi_to_bigint
0000000000003a94 l     F .text	0000000000000118 bigint_binary
0000000000003bac l     F .text	0000000000000020 mpi_is_odd
0000000000003bcc l     F .text	0000000000000028 rng_read
0000000000003bf4 l     F .text	0000000000000540 mpi_egcd
0000000000015c08 l     O .bss	0000000000003000 data.4810
00000000000044cc l     F .text	000000000000019c bigint_binary_mod
000000000001372e l     O .rodata	0000000000000008 __func__.4844
0000000000013736 l     O .rodata	000000000000000e __func__.4941
0000000000013744 l     O .rodata	0000000000000009 __func__.5087
000000000001374d l     O .rodata	0000000000000012 __func__.4811
000000000001375f l     O .rodata	000000000000000f __func__.4850
000000000001376e l     O .rodata	000000000000001f __func__.4868
000000000001378d l     O .rodata	0000000000000019 __func__.4875
00000000000137a6 l     O .rodata	0000000000000012 __func__.4953
00000000000137b8 l     O .rodata	0000000000000015 __func__.4906
00000000000137cd l     O .rodata	000000000000000e __func__.4981
00000000000137db l     O .rodata	000000000000000e __func__.5010
00000000000137e9 l     O .rodata	000000000000000e __func__.5018
00000000000137f7 l     O .rodata	0000000000000011 __func__.5047
0000000000013808 l     O .rodata	0000000000000018 __func__.5064
0000000000013820 l     O .rodata	000000000000001d __func__.5144
000000000001383d l     O .rodata	0000000000000019 __func__.5197
0000000000013856 l     O .rodata	0000000000000015 __func__.5212
0000000000000000 l    df *ABS*	0000000000000000 tee_api_panic.c
000000000000527c l     F .text	000000000000001c check_access
00000000000052a0 l     F .text	0000000000000010 check_res.isra.0
0000000000000000 l    df *ABS*	0000000000000000 tee_system_pta.c
00000000000053dc l     F .text	0000000000000088 invoke_system_pta
00000000000125f4 l     O .rodata	0000000000000010 uuid.4234
0000000000012604 l     O .rodata	000000000000000a __func__.4254
000000000001260e l     O .rodata	0000000000000017 __func__.4266
0000000000018c08 l     O .bss	0000000000000008 sess.4233
0000000000000000 l    df *ABS*	0000000000000000 tcb.c
0000000000013956 l     O .rodata	0000000000000010 __func__.3977
0000000000013966 l     O .rodata	0000000000000010 __func__.4004
0000000000018c10 l     O .bss	0000000000000008 _tls_size
0000000000018c18 l     O .bss	0000000000000008 _tcb
0000000000000000 l    df *ABS*	0000000000000000 bignum.c
0000000000005958 l     F .text	0000000000000064 mpi_get_digit
00000000000059bc l     F .text	0000000000000060 mpi_sub_hlp
0000000000005a1c l     F .text	0000000000000404 mpi_mul_hlp
0000000000005e20 l     F .text	0000000000000074 mpi_bigendian_to_host.part.0
0000000000007cd0 l     F .text	0000000000000090 mpi_check_small_factors
00000000000087fc l     F .text	0000000000000270 mpi_miller_rabin
0000000000012628 l     O .rodata	00000000000002a0 small_prime
00000000000128c8 l     O .rodata	0000000000000024 gcd_pairs
0000000000000000 l    df *ABS*	0000000000000000 gcm.c
0000000000009654 l     F .text	0000000000000118 gcm_mult
0000000000011f20 l     O .rodata	0000000000000018 pt_index_test_data
0000000000011f20 l     O .rodata	0000000000000018 key_index_test_data
0000000000011840 l     O .rodata	0000000000000080 last4
00000000000118c0 l     O .rodata	0000000000000120 tag_test_data
00000000000119e0 l     O .rodata	0000000000000480 ct_test_data
0000000000011e60 l     O .rodata	00000000000000c0 key_test_data
0000000000011f38 l     O .rodata	0000000000000030 pt_len_test_data
0000000000011f68 l     O .rodata	0000000000000180 iv_test_data
00000000000120e8 l     O .rodata	0000000000000018 iv_index_test_data
0000000000012100 l     O .rodata	0000000000000030 iv_len_test_data
0000000000012130 l     O .rodata	0000000000000180 additional_test_data
00000000000122b0 l     O .rodata	0000000000000018 add_index_test_data
00000000000122c8 l     O .rodata	0000000000000030 add_len_test_data
00000000000122f8 l     O .rodata	0000000000000180 pt_test_data
0000000000000000 l    df *ABS*	0000000000000000 platform_util.c
0000000000015430 l     O .data	0000000000000008 memset_func
0000000000000000 l    df *ABS*	0000000000000000 cipher.c
000000000000a384 l     F .text	0000000000000020 get_no_padding
0000000000018c2c l     O .bss	0000000000000004 supported_init
0000000000000000 l    df *ABS*	0000000000000000 cipher_wrap.c
000000000000adc8 l     F .text	0000000000000024 des3_ctx_free
000000000000adec l     F .text	0000000000000008 des3_ctx_clone
000000000000adf4 l     F .text	0000000000000008 des_ctx_clone
000000000000adfc l     F .text	0000000000000008 gcm_ctx_clone
000000000000ae04 l     F .text	0000000000000008 aes_ctx_clone
000000000000ae0c l     F .text	0000000000000034 des3_ctx_alloc
000000000000ae40 l     F .text	0000000000000004 des3_set3key_dec_wrap
000000000000ae44 l     F .text	0000000000000004 des3_set3key_enc_wrap
000000000000ae48 l     F .text	0000000000000004 des3_crypt_cbc_wrap
000000000000ae4c l     F .text	000000000000000c des3_crypt_ecb_wrap
000000000000ae58 l     F .text	0000000000000004 des3_set2key_dec_wrap
000000000000ae5c l     F .text	0000000000000004 des3_set2key_enc_wrap
000000000000ae60 l     F .text	0000000000000024 des_ctx_free
000000000000ae84 l     F .text	0000000000000034 des_ctx_alloc
000000000000aeb8 l     F .text	0000000000000004 des_setkey_dec_wrap
000000000000aebc l     F .text	0000000000000004 des_setkey_enc_wrap
000000000000aec0 l     F .text	0000000000000004 des_crypt_cbc_wrap
000000000000aec4 l     F .text	000000000000000c des_crypt_ecb_wrap
000000000000aed0 l     F .text	0000000000000024 gcm_ctx_free
000000000000aef4 l     F .text	0000000000000034 gcm_ctx_alloc
000000000000af28 l     F .text	0000000000000010 gcm_aes_setkey_wrap
000000000000af38 l     F .text	0000000000000024 aes_ctx_free
000000000000af5c l     F .text	0000000000000034 aes_ctx_alloc
000000000000af90 l     F .text	0000000000000004 aes_setkey_dec_wrap
000000000000af94 l     F .text	0000000000000004 aes_setkey_enc_wrap
000000000000af98 l     F .text	0000000000000004 aes_crypt_cbc_wrap
000000000000af9c l     F .text	0000000000000004 aes_crypt_ecb_wrap
00000000000158d8 l     O .data	0000000000000030 aes_128_ecb_info
00000000000158a8 l     O .data	0000000000000030 aes_192_ecb_info
0000000000015878 l     O .data	0000000000000030 aes_256_ecb_info
0000000000015848 l     O .data	0000000000000030 aes_128_cbc_info
0000000000015818 l     O .data	0000000000000030 aes_192_cbc_info
00000000000157e8 l     O .data	0000000000000030 aes_256_cbc_info
0000000000015778 l     O .data	0000000000000030 aes_128_gcm_info
0000000000015748 l     O .data	0000000000000030 aes_192_gcm_info
0000000000015718 l     O .data	0000000000000030 aes_256_gcm_info
00000000000156a8 l     O .data	0000000000000030 des_ecb_info
0000000000015608 l     O .data	0000000000000030 des_ede_ecb_info
0000000000015568 l     O .data	0000000000000030 des_ede3_ecb_info
0000000000015678 l     O .data	0000000000000030 des_cbc_info
00000000000155d8 l     O .data	0000000000000030 des_ede_cbc_info
0000000000015538 l     O .data	0000000000000030 des_ede3_cbc_info
0000000000015598 l     O .data	0000000000000040 des_ede3_info
0000000000015638 l     O .data	0000000000000040 des_ede_info
00000000000156d8 l     O .data	0000000000000040 des_info
00000000000157a8 l     O .data	0000000000000040 gcm_aes_info
0000000000015908 l     O .data	0000000000000040 aes_info
0000000000000000 l    df *ABS*	0000000000000000 des.c
000000000000b438 l     F .text	00000000000000b0 des3_set2key
000000000000b4e8 l     F .text	00000000000000a4 des3_set3key
00000000000128fc l     O .rodata	0000000000000080 odd_parity_table
000000000001297c l     O .rodata	0000000000000080 weak_key_table
00000000000129fc l     O .rodata	0000000000000040 LHs
0000000000012a3c l     O .rodata	0000000000000040 RHs
0000000000012a7c l     O .rodata	0000000000000100 SB6
0000000000012b7c l     O .rodata	0000000000000100 SB4
0000000000012c7c l     O .rodata	0000000000000100 SB8
0000000000012d7c l     O .rodata	0000000000000100 SB7
0000000000012e7c l     O .rodata	0000000000000100 SB2
0000000000012f7c l     O .rodata	0000000000000100 SB5
000000000001307c l     O .rodata	0000000000000100 SB3
000000000001317c l     O .rodata	0000000000000100 SB1
000000000001327c l     O .rodata	0000000000000018 des3_test_keys
0000000000013294 l     O .rodata	0000000000000018 des3_test_ecb_dec
00000000000132ac l     O .rodata	0000000000000018 des3_test_ecb_enc
00000000000132c4 l     O .rodata	0000000000000018 des3_test_cbc_enc
00000000000132dc l     O .rodata	0000000000000018 des3_test_cbc_dec
0000000000000000 l    df *ABS*	0000000000000000 aes.c
000000000000c3d8 l     F .text	0000000000000268 aes_gen_tables
0000000000013f1a l     O .rodata	0000000000000030 aes_test_ecb_dec
0000000000013f4a l     O .rodata	0000000000000030 aes_test_ecb_enc
0000000000013f7a l     O .rodata	0000000000000030 aes_test_cbc_dec
0000000000013faa l     O .rodata	0000000000000030 aes_test_cbc_enc
0000000000018c70 l     O .bss	0000000000000028 RCON
0000000000018c98 l     O .bss	0000000000000100 FSb
0000000000018d98 l     O .bss	0000000000000100 RSb
0000000000018e98 l     O .bss	0000000000000400 FT0
0000000000019298 l     O .bss	0000000000000400 FT1
0000000000019698 l     O .bss	0000000000000400 FT2
0000000000019a98 l     O .bss	0000000000000400 FT3
0000000000019e98 l     O .bss	0000000000000400 RT0
000000000001a298 l     O .bss	0000000000000400 RT1
000000000001a698 l     O .bss	0000000000000400 RT2
000000000001aa98 l     O .bss	0000000000000400 RT3
000000000001ae98 l     O .bss	0000000000000004 aes_init_done
0000000000000000 l    df *ABS*	0000000000000000 bget_malloc.c
000000000000d90c l     F .text	0000000000000044 raw_malloc_return_hook.constprop.0
000000000001429f l     O .rodata	0000000000000005 __func__.3748
00000000000142a4 l     O .rodata	0000000000000006 __func__.3768
00000000000142aa l     O .rodata	0000000000000005 __func__.3788
00000000000142af l     O .rodata	0000000000000006 __func__.3779
00000000000142b5 l     O .rodata	0000000000000006 __func__.3797
00000000000142bb l     O .rodata	0000000000000007 __func__.3807
00000000000142c2 l     O .rodata	0000000000000014 __func__.3980
00000000000142d6 l     O .rodata	000000000000000e __func__.3925
00000000000142e4 l     O .rodata	0000000000000013 __func__.3869
0000000000015948 l     O .data	0000000000000080 malloc_ctx
0000000000000000 l    df *ABS*	0000000000000000 snprintf.c
0000000000000000 l    df *ABS*	0000000000000000 memcmp.c
0000000000000000 l    df *ABS*	0000000000000000 memmove.c
0000000000000000 l    df *ABS*	0000000000000000 memset.c
0000000000000000 l    df *ABS*	0000000000000000 mempool.c
0000000000014371 l     O .rodata	0000000000000013 __func__.3621
0000000000014384 l     O .rodata	000000000000000e __func__.3630
0000000000000000 l    df *ABS*	0000000000000000 consttime_memcmp.c
0000000000000000 l    df *ABS*	0000000000000000 
0000000000015000 l     O *ABS*	0000000000000000 _DYNAMIC
0000000000015128 l     O *ABS*	0000000000000000 _GLOBAL_OFFSET_TABLE_
000000000000a6c0 g     F .text	000000000000001c mbedtls_cipher_reset
0000000000002864 g     F .text	000000000000003c putchar
00000000000050c8 g     F .text	0000000000000004 TEE_BigIntConvertToFMM
0000000000004c28 g     F .text	000000000000000c TEE_BigIntSquareMod
0000000000004668 g     F .text	000000000000016c TEE_BigIntShiftRight
0000000000005554 g     F .text	00000000000000b8 tee_invoke_supp_plugin
000000000000afac g     F .text	0000000000000010 mbedtls_des_free
0000000000005f38 g     F .text	00000000000000e8 mbedtls_mpi_grow
0000000000003914 g     F .text	0000000000000008 TEE_Realloc
000000000000b928 g     F .text	0000000000000130 mbedtls_des_crypt_cbc
000000000000afbc g     F .text	000000000000000c mbedtls_des3_init
00000000000053bc g     F .text	0000000000000020 __utee_check_inout_annotation
0000000000000998 g     F .text	00000000000000c8 gcm_decrypt
000000000000275c g     F .text	00000000000000c8 printf
000000000000976c g     F .text	000000000000000c mbedtls_gcm_init
00000000000028b8 g     F .text	000000000000000c _utee_log
000000000000cad4 g     F .text	00000000000004f4 mbedtls_internal_aes_encrypt
000000000000361c g     F .text	0000000000000128 TEE_InvokeTACommand
00000000000052b0 g     F .text	000000000000004c __utee_check_outbuf_annotation
0000000000005ea4 g     F .text	0000000000000028 mbedtls_mpi_init_mempool
0000000000002a38 g     F .text	000000000000000c _utee_cryp_random_number_generate
0000000000006804 g     F .text	00000000000000c4 mbedtls_mpi_write_binary
00000000000019e4 g     F .text	0000000000000058 vsnprintk
000000000000705c g     F .text	0000000000000040 mbedtls_mpi_sub_int
0000000000018c30 g     O .bss	0000000000000040 mbedtls_cipher_supported
000000000000e7b4 g     F .text	000000000000005c memmove
0000000000000dfc g     F .text	0000000000000110 enc_int32_calc
000000000000e6b0 g     F .text	0000000000000078 snprintf
000000000000c64c g     F .text	0000000000000010 mbedtls_aes_free
0000000000004484 g     F .text	0000000000000048 TEE_BigIntCmpS32
0000000000001074 g     F .text	00000000000001d0 handle_ops
0000000000015408 g     O .data	0000000000000008 __stack_chk_guard
0000000000006020 g     F .text	0000000000000120 mbedtls_mpi_shrink
000000000000ad04 g     F .text	0000000000000054 mbedtls_cipher_auth_encrypt
0000000000004860 g     F .text	000000000000000c TEE_BigIntAdd
00000000000029d8 g     F .text	000000000000000c _utee_cryp_obj_restrict_usage
0000000000011830 g     O .rodata	0000000000000008 ta_heap_size
000000000000bec8 g     F .text	0000000000000130 mbedtls_des3_crypt_cbc
0000000000002a80 g     F .text	000000000000000c _utee_asymm_operate
000000000000721c g     F .text	00000000000001e4 mbedtls_mpi_read_string
0000000000004878 g     F .text	00000000000000b0 TEE_BigIntNeg
0000000000002ad4 g     F .text	000000000000000c _utee_storage_free_enum
0000000000000020 g       .text	0000000000000000 __text_start
000000000000cfc8 g     F .text	0000000000000004 mbedtls_aes_encrypt
00000000000069d8 g     F .text	00000000000000c0 mbedtls_mpi_shift_r
000000000000b604 g     F .text	0000000000000038 mbedtls_des3_set2key_enc
000000000000e64c g     F .text	0000000000000064 malloc_buffer_overlaps_heap
0000000000002984 g     F .text	000000000000000c _utee_hash_init
0000000000004c10 g     F .text	000000000000000c TEE_BigIntSubMod
0000000000008f48 g     F .text	0000000000000318 mbedtls_mpi_gen_prime
000000000000645c g     F .text	000000000000002c mbedtls_mpi_get_bit
0000000000006684 g     F .text	00000000000000c8 mbedtls_mpi_read_binary
00000000000018e4 g     F .text	0000000000000070 trace_printf
000000000000a474 g     F .text	0000000000000048 mbedtls_cipher_info_from_values
0000000000007d9c g     F .text	0000000000000130 mbedtls_mpi_montmul
0000000000002b40 g     F .text	000000000000000c _utee_cache_operation
0000000000000020 g     F .text	00000000000000ec memcpy
000000000000a418 g     F .text	000000000000005c mbedtls_cipher_info_from_string
00000000000050cc g     F .text	000000000000009c TEE_BigIntConvertFromFMM
0000000000005298 g     F .text	0000000000000008 TEE_Panic
0000000000002824 g     F .text	0000000000000040 puts
0000000000005168 g     F .text	0000000000000114 TEE_BigIntComputeFMM
000000000000e1b4 g     F .text	0000000000000038 malloc_get_stats
000000000000147c g     F .text	00000000000000f4 enc_text_concatenate
0000000000003890 g     F .text	0000000000000028 TEE_GetREETime
0000000000015330 g     O .data	00000000000000d8 ta_props
00000000000052fc g     F .text	0000000000000030 __utee_check_instring_annotation
000000000000ba58 g     F .text	0000000000000470 mbedtls_des3_crypt_ecb
000000000000e1ec g     F .text	0000000000000058 malloc
0000000000000a60 g     F .text	00000000000000a4 enc_float32_cmp
000000000000c950 g     F .text	0000000000000184 mbedtls_aes_setkey_dec
000000000000e728 g     F .text	0000000000000058 vsnprintf
00000000000159c8 g     O .data	0000000000000004 trace_level
000000000000441c g     F .text	0000000000000068 TEE_BigIntCmp
0000000000011818 g     O .rodata	0000000000000008 ta_num_props
000000000000df5c g     F .text	00000000000000d4 bgetr
0000000000002a98 g     F .text	000000000000000c _utee_storage_obj_open
000000000000a50c g     F .text	00000000000000c0 mbedtls_cipher_clone
000000000000e990 g     F .text	0000000000000044 mempool_free
0000000000002990 g     F .text	000000000000000c _utee_hash_update
0000000000001570 g     F .text	00000000000000f8 enc_text_substring
000000000000427c g     F .text	0000000000000094 TEE_BigIntConvertToOctetString
0000000000006568 g     F .text	000000000000005c mbedtls_mpi_bitlen
00000000000047d4 g     F .text	000000000000004c TEE_BigIntGetBit
0000000000011838 g     O .rodata	0000000000000003 trace_ext_prefix
0000000000002af8 g     F .text	000000000000000c _utee_storage_next_enum
000000000000dc14 g     F .text	000000000000008c bgetz
0000000000001274 g     F .text	00000000000000dc enc_text_cmp
0000000000003750 g     F .text	000000000000000c TEE_GetInstanceData
000000000000379c g     F .text	000000000000003c TEE_Wait
000000000000709c g     F .text	000000000000014c mbedtls_mpi_mul_mpi
000000000000a5cc g     F .text	0000000000000020 mbedtls_cipher_setup_info
000000000000ad58 g     F .text	0000000000000070 mbedtls_cipher_auth_decrypt
0000000000003928 g     F .text	0000000000000008 TEE_CacheFlush
00000000000016f4 g     F .text	00000000000001f0 trace_vprintf
000000000000028c g     F .text	0000000000000024 TA_DestroyEntryPoint
0000000000005e94 g     F .text	0000000000000010 mbedtls_mpi_init
000000000000b0a4 g     F .text	0000000000000394 mbedtls_des_setkey
0000000000002ab0 g     F .text	000000000000000c _utee_storage_obj_del
0000000000000b04 g     F .text	0000000000000128 enc_float32_calc
0000000000006514 g     F .text	0000000000000054 mbedtls_mpi_lsb
000000000000a4c8 g     F .text	0000000000000044 mbedtls_cipher_free
00000000000026d4 g     F .text	0000000000000044 _assert_log
0000000000000f0c g     F .text	0000000000000098 enc_int32_cmp
000000000000296c g     F .text	000000000000000c _utee_cryp_state_copy
00000000000050c0 g     F .text	0000000000000008 TEE_BigIntFMMContextSizeInU32
00000000000054c8 g     F .text	000000000000008c tee_unmap
000000000000cfcc g     F .text	00000000000004f0 mbedtls_internal_aes_decrypt
0000000000004134 g     F .text	0000000000000050 _TEE_MathAPI_Init
000000000000560c g     F .text	0000000000000240 __utee_tcb_init
0000000000006f08 g     F .text	0000000000000088 mbedtls_mpi_add_mpi
00000000000031c8 g     F .text	0000000000000020 abort
0000000000001684 g     F .text	0000000000000004 __stack_chk_fail
0000000000005378 g     F .text	0000000000000020 __utee_check_out_annotation
000000000001ae9c g     O .bss	0000000000010000 ta_heap
0000000000004c34 g     F .text	000000000000011c TEE_BigIntInvMod
0000000000002df4 g     F .text	0000000000000124 __utee_call_elf_init_fn
0000000000000320 g     F .text	0000000000000024 TA_CloseSessionEntryPoint
000000000000b6b0 g     F .text	000000000000003c mbedtls_des3_set3key_dec
0000000000009778 g     F .text	0000000000000158 mbedtls_gcm_setkey
00000000000028f4 g     F .text	000000000000000c _utee_close_ta_session
0000000000006f90 g     F .text	000000000000008c mbedtls_mpi_sub_mpi
000000000000e9d4 g     F .text	0000000000000070 consttime_memcmp
00000000000028ac g     F .text	000000000000000c _utee_return
00000000000028c4 g     F .text	000000000000000c __utee_panic
000000000000584c g     F .text	000000000000001c __tls_get_addr
0000000000000540 g     F .text	0000000000000204 TA_InvokeCommandEntryPoint
0000000000002f18 g     F .text	0000000000000010 __utee_call_elf_fini_fn
000000000000e394 g     F .text	0000000000000018 free_wipe
000000000000e894 g     F .text	00000000000000ac mempool_alloc
000000000000045c g     F .text	00000000000000e4 encrypt_bytes
0000000000001350 g     F .text	000000000000012c enc_text_like
00000000000028a0 g     F .text	000000000000000c _utee_panic
000000000000e940 g     F .text	0000000000000050 mempool_calloc
0000000000002b34 g     F .text	000000000000000c _utee_cryp_obj_generate_key
0000000000002b1c g     F .text	000000000000000c _utee_storage_obj_trunc
00000000000098d0 g     F .text	00000000000001cc mbedtls_gcm_starts
0000000000002924 g     F .text	000000000000000c _utee_unmask_cancellation
000000000000e244 g     F .text	0000000000000068 calloc
00000000000038b8 g     F .text	000000000000005c TEE_Malloc
0000000000003340 g     F .text	0000000000000014 TEE_CheckMemoryAccessRights
00000000000028d0 g     F .text	000000000000000c _utee_get_property
00000000000063f4 g     F .text	0000000000000068 mbedtls_mpi_lset
000000000000ab98 g     F .text	0000000000000038 mbedtls_cipher_write_tag
00000000000002b0 g     F .text	0000000000000070 TA_OpenSessionEntryPoint
0000000000005868 g     F .text	00000000000000f0 dl_iterate_phdr
000000000002aea0 g       .bss	0000000000000000 __ftrace_buf_end
0000000000015ba8 g     O .bss	0000000000000004 ta_param_types
0000000000007900 g     F .text	0000000000000040 mbedtls_mpi_div_int
000000000000a5ec g     F .text	0000000000000064 mbedtls_cipher_setkey
0000000000008e90 g     F .text	00000000000000a8 mbedtls_mpi_is_prime_ext
0000000000005058 g     F .text	0000000000000050 TEE_BigIntIsProbablePrime
00000000000071e8 g     F .text	0000000000000034 mbedtls_mpi_mul_int
0000000000007f0c g     F .text	000000000000068c mbedtls_mpi_exp_mod
0000000000006254 g     F .text	00000000000000c0 mbedtls_mpi_safe_cond_assign
000000000000c65c g     F .text	00000000000002f4 mbedtls_aes_setkey_enc
000000000000a718 g     F .text	0000000000000258 mbedtls_cipher_update
0000000000006c08 g     F .text	00000000000000cc mbedtls_mpi_lt_mpi_ct
0000000000000cfc g     F .text	0000000000000098 enc_timestamp_cmp
0000000000004184 g     F .text	0000000000000064 TEE_BigIntInit
000000000000532c g     F .text	000000000000004c __utee_check_outstring_annotation
000000000000375c g     F .text	0000000000000008 TEE_MemMove
000000000000a364 g     F .text	0000000000000020 mbedtls_platform_zeroize
00000000000041e8 g     F .text	0000000000000094 TEE_BigIntConvertFromOctetString
0000000000002a74 g     F .text	000000000000000c _utee_authenc_dec_final
0000000000006a98 g     F .text	000000000000009c mbedtls_mpi_cmp_abs
0000000000002b04 g     F .text	000000000000000c _utee_storage_obj_read
00000000000026a8 g     F .text	000000000000002c memchr
00000000000032e8 g     F .text	000000000000002c TEE_UnmaskCancellation
0000000000009260 g     F .text	00000000000003f4 mbedtls_mpi_self_test
0000000000002b28 g     F .text	000000000000000c _utee_storage_obj_seek
0000000000002918 g     F .text	000000000000000c _utee_check_access_rights
000000000000ab30 g     F .text	0000000000000068 mbedtls_cipher_setup
0000000000006cd4 g     F .text	0000000000000040 mbedtls_mpi_cmp_int
0000000000002ae0 g     F .text	000000000000000c _utee_storage_reset_enum
0000000000000754 g     F .text	0000000000000130 _print_hex
0000000000005398 g     F .text	0000000000000024 __utee_check_attr_in_annotation
0000000000002a5c g     F .text	000000000000000c _utee_authenc_update_payload
0000000000004b98 g     F .text	000000000000006c TEE_BigIntMod
00000000000079f4 g     F .text	00000000000000a0 mbedtls_mpi_mod_int
00000000000065e0 g     F .text	00000000000000a4 mbedtls_mpi_read_binary_le
0000000000004a18 g     F .text	0000000000000180 TEE_BigIntDiv
00000000000029f0 g     F .text	000000000000000c _utee_cryp_obj_alloc
000000000002aea0 g       .bss	0000000000000000 __ftrace_buf_start
0000000000006140 g     F .text	00000000000000b4 mbedtls_mpi_copy
000000000000e19c g     F .text	0000000000000018 malloc_reset_stats
000000000000265c g     F .text	000000000000004c __vsprintf
0000000000000fa4 g     F .text	00000000000000d0 enc_int32_bulk
0000000000000d94 g     F .text	0000000000000068 pow
0000000000000884 g     F .text	0000000000000114 gcm_encrypt
000000000000b678 g     F .text	0000000000000038 mbedtls_des3_set3key_enc
0000000000002954 g     F .text	000000000000000c _utee_set_ta_time
0000000000002900 g     F .text	000000000000000c _utee_invoke_ta_command
000000000000b58c g     F .text	0000000000000018 mbedtls_des_setkey_enc
000000000000e2ac g     F .text	0000000000000058 realloc
00000000000061f4 g     F .text	0000000000000060 mbedtls_mpi_swap
000000000000e82c g     F .text	0000000000000068 mempool_alloc_pool
0000000000004928 g     F .text	00000000000000e8 TEE_BigIntMul
00000000000068c8 g     F .text	0000000000000110 mbedtls_mpi_shift_l
0000000000006b34 g     F .text	00000000000000d4 mbedtls_mpi_cmp_mpi
000000000000376c g     F .text	0000000000000008 TEE_MemFill
000000000000e780 g     F .text	0000000000000034 memcmp
000000000000e3ac g     F .text	0000000000000124 malloc_add_pool
0000000000009c00 g     F .text	00000000000000d0 mbedtls_gcm_finish
000000000000d614 g     F .text	00000000000002f8 mbedtls_aes_self_test
00000000000016e4 g     F .text	0000000000000010 trace_get_level
0000000000006d14 g     F .text	0000000000000120 mbedtls_mpi_add_abs
00000000000050b0 g     F .text	0000000000000010 TEE_BigIntFMMSizeInU32
00000000000050a8 g     F .text	0000000000000004 TEE_BigIntInitFMM
00000000000029a8 g     F .text	000000000000000c _utee_cipher_init
0000000000002fc0 g     F .text	0000000000000208 __utee_entry
000000000000ea44 g       .text	0000000000000000 __text_end
0000000000004d50 g     F .text	00000000000000d4 TEE_BigIntRelativePrime
0000000000007940 g     F .text	00000000000000b4 mbedtls_mpi_mod_mpi
00000000000029cc g     F .text	000000000000000c _utee_cryp_obj_get_info
000000000000e030 g     F .text	00000000000000d4 bpool
000000000000abd0 g     F .text	00000000000000a0 mbedtls_cipher_check_tag
0000000000002960 g     F .text	000000000000000c _utee_cryp_state_alloc
00000000000032bc g     F .text	000000000000002c TEE_GetCancellationFlag
000000000000ac70 g     F .text	0000000000000094 mbedtls_cipher_crypt
0000000000008598 g     F .text	00000000000001a8 mbedtls_mpi_gcd
000000000000384c g     F .text	0000000000000044 TEE_SetTAPersistentTime
000000000000674c g     F .text	00000000000000b8 mbedtls_mpi_write_binary_le
000000000000bff8 g     F .text	00000000000003e0 mbedtls_des_self_test
000000000000e810 g     F .text	000000000000001c memset
00000000000037d8 g     F .text	0000000000000074 TEE_GetTAPersistentTime
0000000000001954 g     F .text	0000000000000004 dhex_dump
000000000000d4bc g     F .text	0000000000000004 mbedtls_aes_decrypt
0000000000003314 g     F .text	000000000000002c TEE_MaskCancellation
0000000000015438 g     O .data	0000000000000100 mbedtls_cipher_definitions
0000000000009cd0 g     F .text	000000000000008c mbedtls_gcm_crypt_and_tag
00000000000029e4 g     F .text	000000000000000c _utee_cryp_obj_get_attr
0000000000009d5c g     F .text	00000000000000ac mbedtls_gcm_auth_decrypt
0000000000000744 g     F .text	0000000000000010 isgraph
000000000000c640 g     F .text	000000000000000c mbedtls_aes_init
00000000000029c0 g     F .text	000000000000000c _utee_cipher_final
00000000000016c8 g     F .text	000000000000001c trace_set_level
000000000000a4bc g     F .text	000000000000000c mbedtls_cipher_init
000000000000a3ec g     F .text	000000000000002c mbedtls_cipher_info_from_type
0000000000002978 g     F .text	000000000000000c _utee_cryp_state_free
0000000000001688 g     F .text	0000000000000024 strcmp
00000000000028e8 g     F .text	000000000000000c _utee_open_ta_session
000000000000a3a4 g     F .text	0000000000000048 mbedtls_cipher_list
0000000000004394 g     F .text	0000000000000088 TEE_BigIntConvertToS32
000000000000486c g     F .text	000000000000000c TEE_BigIntSub
000000000000167c g     F .text	0000000000000008 tahead_get_trace_level
0000000000002aec g     F .text	000000000000000c _utee_storage_start_enum
0000000000005464 g     F .text	0000000000000064 tee_map_zi
0000000000007ecc g     F .text	0000000000000040 mbedtls_mpi_montred
000000000000e304 g     F .text	0000000000000078 memalign
0000000000004310 g     F .text	0000000000000084 TEE_BigIntConvertFromS32
000000000000701c g     F .text	0000000000000040 mbedtls_mpi_add_int
0000000000002a68 g     F .text	000000000000000c _utee_authenc_enc_final
0000000000001244 g     F .text	0000000000000030 SubText
000000000000e4d0 g     F .text	000000000000017c malloc_buffer_is_within_alloced
00000000000029fc g     F .text	000000000000000c _utee_cryp_obj_close
0000000000000344 g     F .text	0000000000000118 decrypt_bytes
00000000000050ac g     F .text	0000000000000004 TEE_BigIntInitFMMContext
0000000000002930 g     F .text	000000000000000c _utee_mask_cancellation
0000000000000c2c g     F .text	00000000000000d0 enc_float32_bulk
0000000000002abc g     F .text	000000000000000c _utee_storage_obj_rename
0000000000004a10 g     F .text	0000000000000008 TEE_BigIntSquare
0000000000002b10 g     F .text	000000000000000c _utee_storage_obj_write
0000000000000254 g     F .text	0000000000000038 TA_CreateEntryPoint
0000000000001668 g     F .text	0000000000000014 __ta_entry
0000000000002a50 g     F .text	000000000000000c _utee_authenc_update_aad
0000000000007d60 g     F .text	000000000000003c mbedtls_mpi_montg_init
0000000000001a3c g     F .text	0000000000000074 snprintk
0000000000004820 g     F .text	0000000000000040 TEE_BigIntGetBitCount
0000000000002a20 g     F .text	000000000000000c _utee_cryp_obj_copy
0000000000004c1c g     F .text	000000000000000c TEE_BigIntMulMod
0000000000008a6c g     F .text	0000000000000424 mbedtls_mpi_inv_mod
0000000000015bb0 g     O .bss	0000000000000040 ta_params
0000000000007400 g     F .text	0000000000000500 mbedtls_mpi_div_mpi
00000000000065c4 g     F .text	000000000000001c mbedtls_mpi_size
000000000000afc8 g     F .text	0000000000000010 mbedtls_des3_free
000000000000d950 g     F .text	00000000000002c4 bget
000000000000a6dc g     F .text	000000000000003c mbedtls_cipher_update_ad
000000000000d4c0 g     F .text	000000000000001c mbedtls_aes_crypt_ecb
000000000000293c g     F .text	000000000000000c _utee_wait
0000000000006488 g     F .text	000000000000008c mbedtls_mpi_set_bit
000000000000391c g     F .text	0000000000000004 TEE_Free
0000000000009e38 g     F .text	000000000000052c mbedtls_gcm_self_test
0000000000008f38 g     F .text	0000000000000010 mbedtls_mpi_is_prime
0000000000003930 g     F .text	0000000000000008 TEE_CacheInvalidate
0000000000002718 g     F .text	0000000000000014 _assert_break
0000000000004c04 g     F .text	000000000000000c TEE_BigIntAddMod
0000000000002948 g     F .text	000000000000000c _utee_get_time
000000000000b004 g     F .text	000000000000003c mbedtls_des_key_check_key_parity
000000000000afa0 g     F .text	000000000000000c mbedtls_des_init
0000000000009a9c g     F .text	0000000000000164 mbedtls_gcm_update
0000000000002a14 g     F .text	000000000000000c _utee_cryp_obj_populate
0000000000009e08 g     F .text	0000000000000030 mbedtls_gcm_free
0000000000003764 g     F .text	0000000000000008 TEE_MemCompare
00000000000029b4 g     F .text	000000000000000c _utee_cipher_update
0000000000001958 g     F .text	000000000000008c __vsnprintf
000000000000b63c g     F .text	000000000000003c mbedtls_des3_set2key_dec
0000000000015bf0 g     O .bss	0000000000000010 __elf_phdr_info
0000000000003524 g     F .text	00000000000000f8 TEE_OpenTASession
000000000000272c g     F .text	0000000000000028 trace_ext_puts
0000000000002754 g     F .text	0000000000000008 trace_ext_get_thread_id
0000000000002a2c g     F .text	000000000000000c _utee_cryp_derive_key
0000000000005ecc g     F .text	000000000000006c mbedtls_mpi_free
000000000000b6ec g     F .text	000000000000023c mbedtls_des_crypt_ecb
0000000000002a08 g     F .text	000000000000000c _utee_cryp_obj_reset
0000000000003920 g     F .text	0000000000000008 TEE_CacheClean
00000000000028dc g     F .text	000000000000000c _utee_get_property_name_to_index
000000000000d4dc g     F .text	0000000000000138 mbedtls_aes_crypt_cbc
0000000000006314 g     F .text	00000000000000e0 mbedtls_mpi_safe_cond_swap
0000000000002a44 g     F .text	000000000000000c _utee_authenc_init
00000000000016ac g     F .text	000000000000001c strlen
0000000000004e24 g     F .text	0000000000000234 TEE_BigIntComputeExtendedGcd
000000000000a970 g     F .text	0000000000000180 mbedtls_cipher_finish
0000000000002ac8 g     F .text	000000000000000c _utee_storage_alloc_enum
000000000000aaf0 g     F .text	0000000000000040 mbedtls_cipher_set_padding_mode
0000000000003774 g     F .text	0000000000000028 TEE_GetSystemTime
0000000000002a8c g     F .text	000000000000000c _utee_asymm_verify
0000000000000000 g     O .ta_head	0000000000000020 ta_head
000000000000dca0 g     F .text	00000000000002bc brel
0000000000006e34 g     F .text	00000000000000d4 mbedtls_mpi_sub_abs
0000000000008740 g     F .text	00000000000000bc mbedtls_mpi_fill_random
0000000000003744 g     F .text	000000000000000c TEE_SetInstanceData
000000000000b040 g     F .text	0000000000000064 mbedtls_des_key_check_weak
000000000000290c g     F .text	000000000000000c _utee_get_cancellation_flag
0000000000007a94 g     F .text	000000000000023c mbedtls_mpi_write_string
000000000000a650 g     F .text	0000000000000070 mbedtls_cipher_set_iv
000000000000b5a4 g     F .text	0000000000000060 mbedtls_des_setkey_dec
000000000000afd8 g     F .text	000000000000002c mbedtls_des_key_set_parity
0000000000003294 g     F .text	0000000000000028 TEE_CloseTASession
0000000000002aa4 g     F .text	000000000000000c _utee_storage_obj_create
000000000000e37c g     F .text	0000000000000018 free
000000000000e104 g     F .text	0000000000000098 bstats
0000000000018c20 g     O .bss	0000000000000008 mbedtls_mpi_mempool
000000000000299c g     F .text	000000000000000c _utee_hash_final



Disassembly of section .text:

0000000000000020 <memcpy>:
memcpy():
/home/zhaoxuyang/Codes/rspi-demo/repo-tsu/optee_os/lib/libutils/isoc/newlib/memcpy.c:106
      20:	f1007c5f 	cmp	x2, #0x1f
      24:	54000629 	b.ls	e8 <memcpy+0xc8>  // b.plast
/home/zhaoxuyang/Codes/rspi-demo/repo-tsu/optee_os/lib/libutils/isoc/newlib/memcpy.c:106 (discriminator 1)
      28:	aa000025 	orr	x5, x1, x0
      2c:	f24008a5 	ands	x5, x5, #0x7
      30:	54000641 	b.ne	f8 <memcpy+0xd8>  // b.any
      34:	d1008048 	sub	x8, x2, #0x20
/home/zhaoxuyang/Codes/rspi-demo/repo-tsu/optee_os/lib/libutils/isoc/newlib/memcpy.c:108
      38:	aa0103e4 	mov	x4, x1
      3c:	927be908 	and	x8, x8, #0xffffffffffffffe0
/home/zhaoxuyang/Codes/rspi-demo/repo-tsu/optee_os/lib/libutils/isoc/newlib/memcpy.c:107
      40:	aa0003e3 	mov	x3, x0
      44:	91008108 	add	x8, x8, #0x20
      48:	8b080007 	add	x7, x0, x8
      4c:	d503201f 	nop
/home/zhaoxuyang/Codes/rspi-demo/repo-tsu/optee_os/lib/libutils/isoc/newlib/memcpy.c:112
      50:	f9400086 	ldr	x6, [x4]
      54:	f9000066 	str	x6, [x3]
/home/zhaoxuyang/Codes/rspi-demo/repo-tsu/optee_os/lib/libutils/isoc/newlib/memcpy.c:113
      58:	91008084 	add	x4, x4, #0x20
      5c:	91008063 	add	x3, x3, #0x20
      60:	f85e8086 	ldur	x6, [x4, #-24]
      64:	f81e8066 	stur	x6, [x3, #-24]
/home/zhaoxuyang/Codes/rspi-demo/repo-tsu/optee_os/lib/libutils/isoc/newlib/memcpy.c:114
      68:	f85f0086 	ldur	x6, [x4, #-16]
      6c:	f81f0066 	stur	x6, [x3, #-16]
/home/zhaoxuyang/Codes/rspi-demo/repo-tsu/optee_os/lib/libutils/isoc/newlib/memcpy.c:111
      70:	eb0300ff 	cmp	x7, x3
/home/zhaoxuyang/Codes/rspi-demo/repo-tsu/optee_os/lib/libutils/isoc/newlib/memcpy.c:115
      74:	f85f8086 	ldur	x6, [x4, #-8]
      78:	f81f8066 	stur	x6, [x3, #-8]
/home/zhaoxuyang/Codes/rspi-demo/repo-tsu/optee_os/lib/libutils/isoc/newlib/memcpy.c:111
      7c:	54fffea1 	b.ne	50 <memcpy+0x30>  // b.any
      80:	8b080021 	add	x1, x1, x8
/home/zhaoxuyang/Codes/rspi-demo/repo-tsu/optee_os/lib/libutils/isoc/newlib/memcpy.c:120
      84:	f27d045f 	tst	x2, #0x18
      88:	92401044 	and	x4, x2, #0x1f
      8c:	540003c0 	b.eq	104 <memcpy+0xe4>  // b.none
/home/zhaoxuyang/Codes/rspi-demo/repo-tsu/optee_os/lib/libutils/isoc/newlib/memcpy.c:121
      90:	f8656826 	ldr	x6, [x1, x5]
      94:	f8256866 	str	x6, [x3, x5]
/home/zhaoxuyang/Codes/rspi-demo/repo-tsu/optee_os/lib/libutils/isoc/newlib/memcpy.c:120
      98:	910020a5 	add	x5, x5, #0x8
      9c:	cb050086 	sub	x6, x4, x5
      a0:	f1001cdf 	cmp	x6, #0x7
      a4:	54ffff68 	b.hi	90 <memcpy+0x70>  // b.pmore
      a8:	d1002084 	sub	x4, x4, #0x8
      ac:	92400842 	and	x2, x2, #0x7
      b0:	927df084 	and	x4, x4, #0xfffffffffffffff8
/home/zhaoxuyang/Codes/rspi-demo/repo-tsu/optee_os/lib/libutils/isoc/newlib/memcpy.c:130
      b4:	d1000446 	sub	x6, x2, #0x1
      b8:	91002084 	add	x4, x4, #0x8
      bc:	8b040063 	add	x3, x3, x4
      c0:	8b040021 	add	x1, x1, x4
      c4:	b4000102 	cbz	x2, e4 <memcpy+0xc4>
/home/zhaoxuyang/Codes/rspi-demo/repo-tsu/optee_os/lib/libutils/isoc/newlib/memcpy.c:99
      c8:	d2800002 	mov	x2, #0x0                   	// #0
      cc:	d503201f 	nop
/home/zhaoxuyang/Codes/rspi-demo/repo-tsu/optee_os/lib/libutils/isoc/newlib/memcpy.c:131
      d0:	38626825 	ldrb	w5, [x1, x2]
/home/zhaoxuyang/Codes/rspi-demo/repo-tsu/optee_os/lib/libutils/isoc/newlib/memcpy.c:130
      d4:	eb0200df 	cmp	x6, x2
/home/zhaoxuyang/Codes/rspi-demo/repo-tsu/optee_os/lib/libutils/isoc/newlib/memcpy.c:131
      d8:	38226865 	strb	w5, [x3, x2]
/home/zhaoxuyang/Codes/rspi-demo/repo-tsu/optee_os/lib/libutils/isoc/newlib/memcpy.c:130
      dc:	91000442 	add	x2, x2, #0x1
      e0:	54ffff81 	b.ne	d0 <memcpy+0xb0>  // b.any
/home/zhaoxuyang/Codes/rspi-demo/repo-tsu/optee_os/lib/libutils/isoc/newlib/memcpy.c:135
      e4:	d65f03c0 	ret
/home/zhaoxuyang/Codes/rspi-demo/repo-tsu/optee_os/lib/libutils/isoc/newlib/memcpy.c:99
      e8:	aa0003e3 	mov	x3, x0
/home/zhaoxuyang/Codes/rspi-demo/repo-tsu/optee_os/lib/libutils/isoc/newlib/memcpy.c:130
      ec:	d1000446 	sub	x6, x2, #0x1
      f0:	b5fffec2 	cbnz	x2, c8 <memcpy+0xa8>
/home/zhaoxuyang/Codes/rspi-demo/repo-tsu/optee_os/lib/libutils/isoc/newlib/memcpy.c:135
      f4:	d65f03c0 	ret
/home/zhaoxuyang/Codes/rspi-demo/repo-tsu/optee_os/lib/libutils/isoc/newlib/memcpy.c:130
      f8:	d1000446 	sub	x6, x2, #0x1
/home/zhaoxuyang/Codes/rspi-demo/repo-tsu/optee_os/lib/libutils/isoc/newlib/memcpy.c:99
      fc:	aa0003e3 	mov	x3, x0
     100:	17fffff2 	b	c8 <memcpy+0xa8>
/home/zhaoxuyang/Codes/rspi-demo/repo-tsu/optee_os/lib/libutils/isoc/newlib/memcpy.c:120
     104:	aa0403e2 	mov	x2, x4
     108:	17fffff9 	b	ec <memcpy+0xcc>

000000000000010c <gcm_demo.isra.0.part.0>:
gcm_demo():
/home/zhaoxuyang/hedb/src/enclave/trustzone/ops_ta.c:139
     10c:	d11103ff 	sub	sp, sp, #0x440
     110:	b00000a0 	adrp	x0, 15000 <_DYNAMIC>
/home/zhaoxuyang/hedb/src/enclave/trustzone/ops_ta.c:153
     114:	f0000084 	adrp	x4, 13000 <SB5+0x84>
     118:	910bd084 	add	x4, x4, #0x2f4
     11c:	52800023 	mov	w3, #0x1                   	// #1
     120:	52800062 	mov	w2, #0x3                   	// #3
/home/zhaoxuyang/hedb/src/enclave/trustzone/ops_ta.c:139
     124:	a9007bfd 	stp	x29, x30, [sp]
     128:	910003fd 	mov	x29, sp
     12c:	f9409c00 	ldr	x0, [x0, #312]
     130:	a90153f3 	stp	x19, x20, [sp, #16]
/home/zhaoxuyang/hedb/src/enclave/trustzone/ops_ta.c:153
     134:	d0000093 	adrp	x19, 12000 <iv_test_data+0x98>
/home/zhaoxuyang/hedb/src/enclave/trustzone/ops_ta.c:139
     138:	f9400001 	ldr	x1, [x0]
     13c:	f9021fe1 	str	x1, [sp, #1080]
     140:	d2800001 	mov	x1, #0x0                   	// #0
     144:	a9025bf5 	stp	x21, x22, [sp, #32]
/home/zhaoxuyang/hedb/src/enclave/trustzone/ops_ta.c:153
     148:	9111f675 	add	x21, x19, #0x47d
     14c:	aa1503e0 	mov	x0, x21
     150:	52801321 	mov	w1, #0x99                  	// #153
/home/zhaoxuyang/hedb/src/enclave/trustzone/ops_ta.c:139
     154:	f9001bf7 	str	x23, [sp, #48]
/home/zhaoxuyang/hedb/src/enclave/trustzone/ops_ta.c:159
     158:	910143f4 	add	x20, sp, #0x50
/home/zhaoxuyang/hedb/src/enclave/trustzone/ops_ta.c:152
     15c:	b9004fff 	str	wzr, [sp, #76]
/home/zhaoxuyang/hedb/src/enclave/trustzone/ops_ta.c:153
     160:	940005e1 	bl	18e4 <trace_printf>
/home/zhaoxuyang/hedb/src/enclave/trustzone/ops_ta.c:156
     164:	52824680 	mov	w0, #0x1234                	// #4660
/home/zhaoxuyang/hedb/src/enclave/trustzone/ops_ta.c:159
     168:	910133f7 	add	x23, sp, #0x4c
     16c:	aa1703e3 	mov	x3, x23
     170:	91001282 	add	x2, x20, #0x4
     174:	52800081 	mov	w1, #0x4                   	// #4
/home/zhaoxuyang/hedb/src/enclave/trustzone/ops_ta.c:156
     178:	b90053e0 	str	w0, [sp, #80]
/home/zhaoxuyang/hedb/src/enclave/trustzone/ops_ta.c:159
     17c:	aa1403e0 	mov	x0, x20
     180:	940001c1 	bl	884 <gcm_encrypt>
/home/zhaoxuyang/hedb/src/enclave/trustzone/ops_ta.c:160
     184:	29499be7 	ldp	w7, w6, [sp, #76]
/home/zhaoxuyang/hedb/src/enclave/trustzone/ops_ta.c:159
     188:	2a0003f6 	mov	w22, w0
/home/zhaoxuyang/hedb/src/enclave/trustzone/ops_ta.c:160
     18c:	f0000084 	adrp	x4, 13000 <SB5+0x84>
     190:	aa1503e0 	mov	x0, x21
     194:	910c1884 	add	x4, x4, #0x306
     198:	52800085 	mov	w5, #0x4                   	// #4
     19c:	52800023 	mov	w3, #0x1                   	// #1
     1a0:	52800062 	mov	w2, #0x3                   	// #3
     1a4:	52801401 	mov	w1, #0xa0                  	// #160
     1a8:	940005cf 	bl	18e4 <trace_printf>
/home/zhaoxuyang/hedb/src/enclave/trustzone/ops_ta.c:161
     1ac:	35000196 	cbnz	w22, 1dc <gcm_demo.isra.0.part.0+0xd0>
/home/zhaoxuyang/hedb/src/enclave/trustzone/ops_ta.c:163
     1b0:	b9404fe0 	ldr	w0, [sp, #76]
     1b4:	7100801f 	cmp	w0, #0x20
     1b8:	54000120 	b.eq	1dc <gcm_demo.isra.0.part.0+0xd0>  // b.none
     1bc:	aa1503e3 	mov	x3, x21
     1c0:	f0000081 	adrp	x1, 13000 <SB5+0x84>
     1c4:	f0000080 	adrp	x0, 13000 <SB5+0x84>
     1c8:	910c7421 	add	x1, x1, #0x31d
     1cc:	910c9800 	add	x0, x0, #0x326
     1d0:	52801462 	mov	w2, #0xa3                  	// #163
     1d4:	94000940 	bl	26d4 <_assert_log>
     1d8:	94000950 	bl	2718 <_assert_break>
/home/zhaoxuyang/hedb/src/enclave/trustzone/ops_ta.c:168
     1dc:	52800080 	mov	w0, #0x4                   	// #4
/home/zhaoxuyang/hedb/src/enclave/trustzone/ops_ta.c:169
     1e0:	aa1703e3 	mov	x3, x23
     1e4:	aa1403e2 	mov	x2, x20
     1e8:	52800401 	mov	w1, #0x20                  	// #32
/home/zhaoxuyang/hedb/src/enclave/trustzone/ops_ta.c:166
     1ec:	2909ffe0 	stp	w0, wzr, [sp, #76]
/home/zhaoxuyang/hedb/src/enclave/trustzone/ops_ta.c:169
     1f0:	91001280 	add	x0, x20, #0x4
     1f4:	940001e9 	bl	998 <gcm_decrypt>
/home/zhaoxuyang/hedb/src/enclave/trustzone/ops_ta.c:170
     1f8:	29499be5 	ldp	w5, w6, [sp, #76]
     1fc:	9111f660 	add	x0, x19, #0x47d
     200:	52800062 	mov	w2, #0x3                   	// #3
     204:	52801541 	mov	w1, #0xaa                  	// #170
     208:	f0000084 	adrp	x4, 13000 <SB5+0x84>
     20c:	52800023 	mov	w3, #0x1                   	// #1
     210:	910d0484 	add	x4, x4, #0x341
     214:	940005b4 	bl	18e4 <trace_printf>
/home/zhaoxuyang/hedb/src/enclave/trustzone/ops_ta.c:172
     218:	b00000a0 	adrp	x0, 15000 <_DYNAMIC>
     21c:	f9409c00 	ldr	x0, [x0, #312]
     220:	f9421fe1 	ldr	x1, [sp, #1080]
     224:	f9400002 	ldr	x2, [x0]
     228:	eb020021 	subs	x1, x1, x2
     22c:	d2800002 	mov	x2, #0x0                   	// #0
     230:	54000040 	b.eq	238 <gcm_demo.isra.0.part.0+0x12c>  // b.none
     234:	94000514 	bl	1684 <__stack_chk_fail>
     238:	52800000 	mov	w0, #0x0                   	// #0
     23c:	a9407bfd 	ldp	x29, x30, [sp]
     240:	a94153f3 	ldp	x19, x20, [sp, #16]
     244:	a9425bf5 	ldp	x21, x22, [sp, #32]
     248:	f9401bf7 	ldr	x23, [sp, #48]
     24c:	911103ff 	add	sp, sp, #0x440
     250:	d65f03c0 	ret

0000000000000254 <TA_CreateEntryPoint>:
TA_CreateEntryPoint():
/home/zhaoxuyang/hedb/src/enclave/trustzone/ops_ta.c:49
     254:	a9bf7bfd 	stp	x29, x30, [sp, #-16]!
/home/zhaoxuyang/hedb/src/enclave/trustzone/ops_ta.c:50
     258:	d0000080 	adrp	x0, 12000 <iv_test_data+0x98>
     25c:	9111f400 	add	x0, x0, #0x47d
/home/zhaoxuyang/hedb/src/enclave/trustzone/ops_ta.c:49
     260:	910003fd 	mov	x29, sp
/home/zhaoxuyang/hedb/src/enclave/trustzone/ops_ta.c:50
     264:	91002400 	add	x0, x0, #0x9
     268:	52800023 	mov	w3, #0x1                   	// #1
     26c:	52800062 	mov	w2, #0x3                   	// #3
     270:	52800641 	mov	w1, #0x32                  	// #50
     274:	f0000084 	adrp	x4, 13000 <SB5+0x84>
     278:	910d7484 	add	x4, x4, #0x35d
     27c:	9400059a 	bl	18e4 <trace_printf>
/home/zhaoxuyang/hedb/src/enclave/trustzone/ops_ta.c:53
     280:	52800000 	mov	w0, #0x0                   	// #0
     284:	a8c17bfd 	ldp	x29, x30, [sp], #16
     288:	d65f03c0 	ret

000000000000028c <TA_DestroyEntryPoint>:
TA_DestroyEntryPoint():
/home/zhaoxuyang/hedb/src/enclave/trustzone/ops_ta.c:61
     28c:	d0000080 	adrp	x0, 12000 <iv_test_data+0x98>
     290:	9111f400 	add	x0, x0, #0x47d
     294:	91007400 	add	x0, x0, #0x1d
     298:	f0000084 	adrp	x4, 13000 <SB5+0x84>
     29c:	52800023 	mov	w3, #0x1                   	// #1
     2a0:	910dec84 	add	x4, x4, #0x37b
     2a4:	52800062 	mov	w2, #0x3                   	// #3
     2a8:	528007a1 	mov	w1, #0x3d                  	// #61
     2ac:	1400058e 	b	18e4 <trace_printf>

00000000000002b0 <TA_OpenSessionEntryPoint>:
TA_OpenSessionEntryPoint():
/home/zhaoxuyang/hedb/src/enclave/trustzone/ops_ta.c:73
     2b0:	a9be7bfd 	stp	x29, x30, [sp, #-32]!
/home/zhaoxuyang/hedb/src/enclave/trustzone/ops_ta.c:79
     2b4:	f0000084 	adrp	x4, 13000 <SB5+0x84>
     2b8:	52800023 	mov	w3, #0x1                   	// #1
/home/zhaoxuyang/hedb/src/enclave/trustzone/ops_ta.c:73
     2bc:	910003fd 	mov	x29, sp
     2c0:	a90153f3 	stp	x19, x20, [sp, #16]
/home/zhaoxuyang/hedb/src/enclave/trustzone/ops_ta.c:79
     2c4:	d0000093 	adrp	x19, 12000 <iv_test_data+0x98>
     2c8:	9111f673 	add	x19, x19, #0x47d
     2cc:	9100ca73 	add	x19, x19, #0x32
/home/zhaoxuyang/hedb/src/enclave/trustzone/ops_ta.c:73
     2d0:	2a0003f4 	mov	w20, w0
/home/zhaoxuyang/hedb/src/enclave/trustzone/ops_ta.c:79
     2d4:	910dac84 	add	x4, x4, #0x36b
     2d8:	aa1303e0 	mov	x0, x19
     2dc:	52800062 	mov	w2, #0x3                   	// #3
     2e0:	528009e1 	mov	w1, #0x4f                  	// #79
     2e4:	94000580 	bl	18e4 <trace_printf>
/home/zhaoxuyang/hedb/src/enclave/trustzone/ops_ta.c:81
     2e8:	35000194 	cbnz	w20, 318 <TA_OpenSessionEntryPoint+0x68>
/home/zhaoxuyang/hedb/src/enclave/trustzone/ops_ta.c:92
     2ec:	f0000084 	adrp	x4, 13000 <SB5+0x84>
     2f0:	aa1303e0 	mov	x0, x19
     2f4:	910e6884 	add	x4, x4, #0x39a
     2f8:	52800023 	mov	w3, #0x1                   	// #1
     2fc:	52800042 	mov	w2, #0x2                   	// #2
     300:	52800b81 	mov	w1, #0x5c                  	// #92
     304:	94000578 	bl	18e4 <trace_printf>
/home/zhaoxuyang/hedb/src/enclave/trustzone/ops_ta.c:96
     308:	2a1403e0 	mov	w0, w20
     30c:	a94153f3 	ldp	x19, x20, [sp, #16]
     310:	a8c27bfd 	ldp	x29, x30, [sp], #32
     314:	d65f03c0 	ret
/home/zhaoxuyang/hedb/src/enclave/trustzone/ops_ta.c:82
     318:	129fff34 	mov	w20, #0xffff0006            	// #-65530
     31c:	17fffffb 	b	308 <TA_OpenSessionEntryPoint+0x58>

0000000000000320 <TA_CloseSessionEntryPoint>:
TA_CloseSessionEntryPoint():
/home/zhaoxuyang/hedb/src/enclave/trustzone/ops_ta.c:106
     320:	d0000080 	adrp	x0, 12000 <iv_test_data+0x98>
     324:	9111f400 	add	x0, x0, #0x47d
     328:	91012c00 	add	x0, x0, #0x4b
     32c:	f0000084 	adrp	x4, 13000 <SB5+0x84>
     330:	52800023 	mov	w3, #0x1                   	// #1
     334:	910ea084 	add	x4, x4, #0x3a8
     338:	52800042 	mov	w2, #0x2                   	// #2
     33c:	52800d41 	mov	w1, #0x6a                  	// #106
     340:	14000569 	b	18e4 <trace_printf>

0000000000000344 <decrypt_bytes>:
decrypt_bytes():
/home/zhaoxuyang/hedb/src/enclave/trustzone/ops_ta.c:246
     344:	a9bb7bfd 	stp	x29, x30, [sp, #-80]!
     348:	b00000a4 	adrp	x4, 15000 <_DYNAMIC>
     34c:	910003fd 	mov	x29, sp
     350:	f9409c84 	ldr	x4, [x4, #312]
     354:	a90153f3 	stp	x19, x20, [sp, #16]
     358:	aa0103f4 	mov	x20, x1
     35c:	f9400081 	ldr	x1, [x4]
     360:	f90027e1 	str	x1, [sp, #72]
     364:	d2800001 	mov	x1, #0x0                   	// #0
     368:	a9025bf5 	stp	x21, x22, [sp, #32]
/home/zhaoxuyang/hedb/src/enclave/trustzone/ops_ta.c:267
     36c:	f100729f 	cmp	x20, #0x1c
/home/zhaoxuyang/hedb/src/enclave/trustzone/ops_ta.c:246
     370:	f9001bf7 	str	x23, [sp, #48]
/home/zhaoxuyang/hedb/src/enclave/trustzone/ops_ta.c:250
     374:	f90023ff 	str	xzr, [sp, #64]
/home/zhaoxuyang/hedb/src/enclave/trustzone/ops_ta.c:267
     378:	54000268 	b.hi	3c4 <decrypt_bytes+0x80>  // b.pmore
/home/zhaoxuyang/hedb/src/enclave/trustzone/ops_ta.c:269
     37c:	12800013 	mov	w19, #0xffffffff            	// #-1
/home/zhaoxuyang/hedb/src/enclave/trustzone/ops_ta.c:268
     380:	d0000080 	adrp	x0, 12000 <iv_test_data+0x98>
     384:	9111f400 	add	x0, x0, #0x47d
     388:	f0000084 	adrp	x4, 13000 <SB5+0x84>
     38c:	91019400 	add	x0, x0, #0x65
     390:	910ed884 	add	x4, x4, #0x3b6
     394:	52800023 	mov	w3, #0x1                   	// #1
     398:	52800062 	mov	w2, #0x3                   	// #3
     39c:	52802181 	mov	w1, #0x10c                 	// #268
     3a0:	94000551 	bl	18e4 <trace_printf>
/home/zhaoxuyang/hedb/src/enclave/trustzone/ops_ta.c:292
     3a4:	b00000a4 	adrp	x4, 15000 <_DYNAMIC>
     3a8:	f9409c84 	ldr	x4, [x4, #312]
     3ac:	f94027e0 	ldr	x0, [sp, #72]
     3b0:	f9400081 	ldr	x1, [x4]
     3b4:	eb010000 	subs	x0, x0, x1
     3b8:	d2800001 	mov	x1, #0x0                   	// #0
     3bc:	54000440 	b.eq	444 <decrypt_bytes+0x100>  // b.none
     3c0:	940004b1 	bl	1684 <__stack_chk_fail>
     3c4:	aa0303f7 	mov	x23, x3
/home/zhaoxuyang/hedb/src/enclave/trustzone/ops_ta.c:271
     3c8:	aa0003f6 	mov	x22, x0
     3cc:	aa0203f5 	mov	x21, x2
     3d0:	910103e3 	add	x3, sp, #0x40
     3d4:	2a1403e1 	mov	w1, w20
     3d8:	94000170 	bl	998 <gcm_decrypt>
     3dc:	2a0003f3 	mov	w19, w0
/home/zhaoxuyang/hedb/src/enclave/trustzone/ops_ta.c:273
     3e0:	f94023e0 	ldr	x0, [sp, #64]
     3e4:	eb17001f 	cmp	x0, x23
     3e8:	54000160 	b.eq	414 <decrypt_bytes+0xd0>  // b.none
/home/zhaoxuyang/hedb/src/enclave/trustzone/ops_ta.c:273 (discriminator 1)
     3ec:	d0000083 	adrp	x3, 12000 <iv_test_data+0x98>
     3f0:	9111f463 	add	x3, x3, #0x47d
     3f4:	91019463 	add	x3, x3, #0x65
     3f8:	f0000081 	adrp	x1, 13000 <SB5+0x84>
     3fc:	f0000080 	adrp	x0, 13000 <SB5+0x84>
     400:	910c7421 	add	x1, x1, #0x31d
     404:	910f1000 	add	x0, x0, #0x3c4
     408:	52802222 	mov	w2, #0x111                 	// #273
     40c:	940008b2 	bl	26d4 <_assert_log>
     410:	940008c2 	bl	2718 <_assert_break>
/home/zhaoxuyang/hedb/src/enclave/trustzone/ops_ta.c:285 (discriminator 2)
     414:	34fffc93 	cbz	w19, 3a4 <decrypt_bytes+0x60>
/home/zhaoxuyang/hedb/src/enclave/trustzone/ops_ta.c:287
     418:	aa1403e2 	mov	x2, x20
     41c:	aa1603e1 	mov	x1, x22
     420:	f0000080 	adrp	x0, 13000 <SB5+0x84>
     424:	910f6c00 	add	x0, x0, #0x3db
     428:	940000cb 	bl	754 <_print_hex>
/home/zhaoxuyang/hedb/src/enclave/trustzone/ops_ta.c:288
     42c:	f94023e2 	ldr	x2, [sp, #64]
     430:	aa1503e1 	mov	x1, x21
     434:	f0000080 	adrp	x0, 13000 <SB5+0x84>
     438:	910f9400 	add	x0, x0, #0x3e5
     43c:	940000c6 	bl	754 <_print_hex>
     440:	17ffffd9 	b	3a4 <decrypt_bytes+0x60>
/home/zhaoxuyang/hedb/src/enclave/trustzone/ops_ta.c:292
     444:	2a1303e0 	mov	w0, w19
     448:	a94153f3 	ldp	x19, x20, [sp, #16]
     44c:	a9425bf5 	ldp	x21, x22, [sp, #32]
     450:	f9401bf7 	ldr	x23, [sp, #48]
     454:	a8c57bfd 	ldp	x29, x30, [sp], #80
     458:	d65f03c0 	ret

000000000000045c <encrypt_bytes>:
encrypt_bytes():
/home/zhaoxuyang/hedb/src/enclave/trustzone/ops_ta.c:305
     45c:	a9bb7bfd 	stp	x29, x30, [sp, #-80]!
     460:	b00000a4 	adrp	x4, 15000 <_DYNAMIC>
     464:	910003fd 	mov	x29, sp
     468:	f9409c84 	ldr	x4, [x4, #312]
     46c:	a90153f3 	stp	x19, x20, [sp, #16]
     470:	aa0103f4 	mov	x20, x1
     474:	f9400081 	ldr	x1, [x4]
     478:	f90027e1 	str	x1, [sp, #72]
     47c:	d2800001 	mov	x1, #0x0                   	// #0
     480:	a9025bf5 	stp	x21, x22, [sp, #32]
/home/zhaoxuyang/hedb/src/enclave/trustzone/ops_ta.c:319
     484:	2a1403e1 	mov	w1, w20
/home/zhaoxuyang/hedb/src/enclave/trustzone/ops_ta.c:305
     488:	aa0303f5 	mov	x21, x3
     48c:	aa0203f6 	mov	x22, x2
     490:	f9001bf7 	str	x23, [sp, #48]
     494:	aa0003f7 	mov	x23, x0
/home/zhaoxuyang/hedb/src/enclave/trustzone/ops_ta.c:307
     498:	f90023e3 	str	x3, [sp, #64]
/home/zhaoxuyang/hedb/src/enclave/trustzone/ops_ta.c:319
     49c:	910103e3 	add	x3, sp, #0x40
     4a0:	940000f9 	bl	884 <gcm_encrypt>
     4a4:	2a0003f3 	mov	w19, w0
/home/zhaoxuyang/hedb/src/enclave/trustzone/ops_ta.c:321
     4a8:	f94023e0 	ldr	x0, [sp, #64]
     4ac:	eb15001f 	cmp	x0, x21
     4b0:	54000160 	b.eq	4dc <encrypt_bytes+0x80>  // b.none
/home/zhaoxuyang/hedb/src/enclave/trustzone/ops_ta.c:321 (discriminator 1)
     4b4:	d0000083 	adrp	x3, 12000 <iv_test_data+0x98>
     4b8:	9111f463 	add	x3, x3, #0x47d
     4bc:	9101cc63 	add	x3, x3, #0x73
     4c0:	f0000081 	adrp	x1, 13000 <SB5+0x84>
     4c4:	f0000080 	adrp	x0, 13000 <SB5+0x84>
     4c8:	910c7421 	add	x1, x1, #0x31d
     4cc:	910f1000 	add	x0, x0, #0x3c4
     4d0:	52802822 	mov	w2, #0x141                 	// #321
     4d4:	94000880 	bl	26d4 <_assert_log>
     4d8:	94000890 	bl	2718 <_assert_break>
/home/zhaoxuyang/hedb/src/enclave/trustzone/ops_ta.c:331 (discriminator 2)
     4dc:	34000173 	cbz	w19, 508 <encrypt_bytes+0xac>
/home/zhaoxuyang/hedb/src/enclave/trustzone/ops_ta.c:333
     4e0:	aa1403e2 	mov	x2, x20
     4e4:	aa1703e1 	mov	x1, x23
     4e8:	f0000080 	adrp	x0, 13000 <SB5+0x84>
     4ec:	910fb400 	add	x0, x0, #0x3ed
     4f0:	94000099 	bl	754 <_print_hex>
/home/zhaoxuyang/hedb/src/enclave/trustzone/ops_ta.c:334
     4f4:	f94023e2 	ldr	x2, [sp, #64]
     4f8:	f0000080 	adrp	x0, 13000 <SB5+0x84>
     4fc:	aa1603e1 	mov	x1, x22
     500:	910fc800 	add	x0, x0, #0x3f2
     504:	94000094 	bl	754 <_print_hex>
/home/zhaoxuyang/hedb/src/enclave/trustzone/ops_ta.c:338
     508:	b00000a4 	adrp	x4, 15000 <_DYNAMIC>
     50c:	f9409c84 	ldr	x4, [x4, #312]
     510:	f94027e0 	ldr	x0, [sp, #72]
     514:	f9400081 	ldr	x1, [x4]
     518:	eb010000 	subs	x0, x0, x1
     51c:	d2800001 	mov	x1, #0x0                   	// #0
     520:	54000040 	b.eq	528 <encrypt_bytes+0xcc>  // b.none
     524:	94000458 	bl	1684 <__stack_chk_fail>
     528:	2a1303e0 	mov	w0, w19
     52c:	a94153f3 	ldp	x19, x20, [sp, #16]
     530:	a9425bf5 	ldp	x21, x22, [sp, #32]
     534:	f9401bf7 	ldr	x23, [sp, #48]
     538:	a8c57bfd 	ldp	x29, x30, [sp], #80
     53c:	d65f03c0 	ret

0000000000000540 <TA_InvokeCommandEntryPoint>:
TA_InvokeCommandEntryPoint():
/home/zhaoxuyang/hedb/src/enclave/trustzone/ops_ta.c:363
     540:	a9bc7bfd 	stp	x29, x30, [sp, #-64]!
     544:	7100103f 	cmp	w1, #0x4
     548:	910003fd 	mov	x29, sp
     54c:	a90153f3 	stp	x19, x20, [sp, #16]
     550:	a9025bf5 	stp	x21, x22, [sp, #32]
     554:	f9001bf7 	str	x23, [sp, #48]
     558:	54000f28 	b.hi	73c <TA_InvokeCommandEntryPoint+0x1fc>  // b.pmore
     55c:	d0000080 	adrp	x0, 12000 <iv_test_data+0x98>
     560:	2a0103f3 	mov	w19, w1
     564:	aa0303f4 	mov	x20, x3
     568:	9111e000 	add	x0, x0, #0x478
     56c:	38734800 	ldrb	w0, [x0, w19, uxtw]
     570:	10000061 	adr	x1, 57c <TA_InvokeCommandEntryPoint+0x3c>
     574:	8b208820 	add	x0, x1, w0, sxtb #2
     578:	d61f0000 	br	x0
inc_value():
/home/zhaoxuyang/hedb/src/enclave/trustzone/ops_ta.c:117
     57c:	71000c5f 	cmp	w2, #0x3
     580:	54000de1 	b.ne	73c <TA_InvokeCommandEntryPoint+0x1fc>  // b.any
/home/zhaoxuyang/hedb/src/enclave/trustzone/ops_ta.c:121
     584:	900000c0 	adrp	x0, 18000 <data.4810+0x23f8>
     588:	5290d401 	mov	w1, #0x86a0                	// #34464
     58c:	72a00021 	movk	w1, #0x1, lsl #16
     590:	b94c2805 	ldr	w5, [x0, #3112]
     594:	110004a5 	add	w5, w5, #0x1
     598:	b90c2805 	str	w5, [x0, #3112]
     59c:	1ac10ca0 	sdiv	w0, w5, w1
     5a0:	1b019400 	msub	w0, w0, w1, w5
/home/zhaoxuyang/hedb/src/enclave/trustzone/ops_ta.c:122
     5a4:	35000120 	cbnz	w0, 5c8 <TA_InvokeCommandEntryPoint+0x88>
/home/zhaoxuyang/hedb/src/enclave/trustzone/ops_ta.c:124
     5a8:	d0000080 	adrp	x0, 12000 <iv_test_data+0x98>
     5ac:	9111f400 	add	x0, x0, #0x47d
     5b0:	f0000084 	adrp	x4, 13000 <SB5+0x84>
     5b4:	91020400 	add	x0, x0, #0x81
     5b8:	91112884 	add	x4, x4, #0x44a
     5bc:	52800023 	mov	w3, #0x1                   	// #1
     5c0:	52800f81 	mov	w1, #0x7c                  	// #124
     5c4:	940004c8 	bl	18e4 <trace_printf>
/home/zhaoxuyang/hedb/src/enclave/trustzone/ops_ta.c:135
     5c8:	b9400280 	ldr	w0, [x20]
     5cc:	11000400 	add	w0, w0, #0x1
     5d0:	b9000280 	str	w0, [x20]
TA_InvokeCommandEntryPoint():
/home/zhaoxuyang/hedb/src/enclave/trustzone/ops_ta.c:380
     5d4:	2a1303e0 	mov	w0, w19
     5d8:	a94153f3 	ldp	x19, x20, [sp, #16]
     5dc:	a9425bf5 	ldp	x21, x22, [sp, #32]
     5e0:	f9401bf7 	ldr	x23, [sp, #48]
     5e4:	a8c47bfd 	ldp	x29, x30, [sp], #64
     5e8:	d65f03c0 	ret
gcm_demo():
/home/zhaoxuyang/hedb/src/enclave/trustzone/ops_ta.c:146
     5ec:	71001c5f 	cmp	w2, #0x7
     5f0:	54000a61 	b.ne	73c <TA_InvokeCommandEntryPoint+0x1fc>  // b.any
TA_InvokeCommandEntryPoint():
/home/zhaoxuyang/hedb/src/enclave/trustzone/ops_ta.c:380
     5f4:	a94153f3 	ldp	x19, x20, [sp, #16]
     5f8:	a9425bf5 	ldp	x21, x22, [sp, #32]
     5fc:	f9401bf7 	ldr	x23, [sp, #48]
     600:	a8c47bfd 	ldp	x29, x30, [sp], #64
gcm_demo():
/home/zhaoxuyang/hedb/src/enclave/trustzone/ops_ta.c:380
     604:	17fffec2 	b	10c <gcm_demo.isra.0.part.0>
dec_value():
/home/zhaoxuyang/hedb/src/enclave/trustzone/ops_ta.c:180
     608:	71001c5f 	cmp	w2, #0x7
     60c:	54000981 	b.ne	73c <TA_InvokeCommandEntryPoint+0x1fc>  // b.any
/home/zhaoxuyang/hedb/src/enclave/trustzone/ops_ta.c:184
     610:	b9400861 	ldr	w1, [x3, #8]
     614:	52840600 	mov	w0, #0x2030                	// #8240
/home/zhaoxuyang/hedb/src/enclave/trustzone/ops_ta.c:182
     618:	f9400076 	ldr	x22, [x3]
/home/zhaoxuyang/hedb/src/enclave/trustzone/ops_ta.c:184
     61c:	6b00003f 	cmp	w1, w0
     620:	54000160 	b.eq	64c <TA_InvokeCommandEntryPoint+0x10c>  // b.none
     624:	d0000083 	adrp	x3, 12000 <iv_test_data+0x98>
     628:	9111f463 	add	x3, x3, #0x47d
     62c:	91022c63 	add	x3, x3, #0x8b
     630:	f0000081 	adrp	x1, 13000 <SB5+0x84>
     634:	f0000080 	adrp	x0, 13000 <SB5+0x84>
     638:	910c7421 	add	x1, x1, #0x31d
     63c:	910fec00 	add	x0, x0, #0x3fb
     640:	52801702 	mov	w2, #0xb8                  	// #184
     644:	94000824 	bl	26d4 <_assert_log>
     648:	94000834 	bl	2718 <_assert_break>
/home/zhaoxuyang/hedb/src/enclave/trustzone/ops_ta.c:210
     64c:	d0000094 	adrp	x20, 12000 <iv_test_data+0x98>
     650:	9111f694 	add	x20, x20, #0x47d
     654:	f0000097 	adrp	x23, 13000 <SB5+0x84>
gcm_demo():
/home/zhaoxuyang/hedb/src/enclave/trustzone/ops_ta.c:210
     658:	97fffead 	bl	10c <gcm_demo.isra.0.part.0>
dec_value():
/home/zhaoxuyang/hedb/src/enclave/trustzone/ops_ta.c:210
     65c:	9110f6f7 	add	x23, x23, #0x43d
     660:	91022e94 	add	x20, x20, #0x8b
/home/zhaoxuyang/hedb/src/enclave/trustzone/ops_ta.c:185
     664:	52800005 	mov	w5, #0x0                   	// #0
/home/zhaoxuyang/hedb/src/enclave/trustzone/ops_ta.c:194
     668:	b94002c3 	ldr	w3, [x22]
     66c:	7100047f 	cmp	w3, #0x1
     670:	54000200 	b.eq	6b0 <TA_InvokeCommandEntryPoint+0x170>  // b.none
/home/zhaoxuyang/hedb/src/enclave/trustzone/ops_ta.c:195
     674:	d503203f 	yield
/home/zhaoxuyang/hedb/src/enclave/trustzone/ops_ta.c:224
     678:	b94002c0 	ldr	w0, [x22]
     67c:	7103a41f 	cmp	w0, #0xe9
     680:	54ffff41 	b.ne	668 <TA_InvokeCommandEntryPoint+0x128>  // b.any
/home/zhaoxuyang/hedb/src/enclave/trustzone/ops_ta.c:226
     684:	d0000080 	adrp	x0, 12000 <iv_test_data+0x98>
     688:	9111f400 	add	x0, x0, #0x47d
     68c:	91022c00 	add	x0, x0, #0x8b
     690:	f0000084 	adrp	x4, 13000 <SB5+0x84>
     694:	52800023 	mov	w3, #0x1                   	// #1
     698:	91113884 	add	x4, x4, #0x44e
     69c:	52800062 	mov	w2, #0x3                   	// #3
     6a0:	52801c41 	mov	w1, #0xe2                  	// #226
/home/zhaoxuyang/hedb/src/enclave/trustzone/ops_ta.c:232
     6a4:	52800013 	mov	w19, #0x0                   	// #0
/home/zhaoxuyang/hedb/src/enclave/trustzone/ops_ta.c:226
     6a8:	9400048f 	bl	18e4 <trace_printf>
/home/zhaoxuyang/hedb/src/enclave/trustzone/ops_ta.c:232
     6ac:	17ffffca 	b	5d4 <TA_InvokeCommandEntryPoint+0x94>
/home/zhaoxuyang/hedb/src/enclave/trustzone/ops_ta.c:198
     6b0:	d5033d9f 	dsb	ld
/home/zhaoxuyang/hedb/src/enclave/trustzone/ops_ta.c:202
     6b4:	110004b5 	add	w21, w5, #0x1
     6b8:	5284e201 	mov	w1, #0x2710                	// #10000
     6bc:	1ac10ea0 	sdiv	w0, w21, w1
     6c0:	1b01d400 	msub	w0, w0, w1, w21
/home/zhaoxuyang/hedb/src/enclave/trustzone/ops_ta.c:203
     6c4:	35000140 	cbnz	w0, 6ec <TA_InvokeCommandEntryPoint+0x1ac>
/home/zhaoxuyang/hedb/src/enclave/trustzone/ops_ta.c:204
     6c8:	110008b3 	add	w19, w5, #0x2
     6cc:	2a1503e5 	mov	w5, w21
     6d0:	2a1303f5 	mov	w21, w19
     6d4:	aa1403e0 	mov	x0, x20
     6d8:	f0000084 	adrp	x4, 13000 <SB5+0x84>
     6dc:	52800062 	mov	w2, #0x3                   	// #3
     6e0:	9110c884 	add	x4, x4, #0x432
     6e4:	52801981 	mov	w1, #0xcc                  	// #204
     6e8:	9400047f 	bl	18e4 <trace_printf>
/home/zhaoxuyang/hedb/src/enclave/trustzone/ops_ta.c:206
     6ec:	aa1603e0 	mov	x0, x22
     6f0:	94000261 	bl	1074 <handle_ops>
/home/zhaoxuyang/hedb/src/enclave/trustzone/ops_ta.c:208
     6f4:	b9400ac5 	ldr	w5, [x22, #8]
     6f8:	34000105 	cbz	w5, 718 <TA_InvokeCommandEntryPoint+0x1d8>
/home/zhaoxuyang/hedb/src/enclave/trustzone/ops_ta.c:210
     6fc:	2a1503e6 	mov	w6, w21
     700:	aa1703e4 	mov	x4, x23
     704:	aa1403e0 	mov	x0, x20
     708:	52800023 	mov	w3, #0x1                   	// #1
     70c:	52800062 	mov	w2, #0x3                   	// #3
     710:	52801a41 	mov	w1, #0xd2                  	// #210
     714:	94000474 	bl	18e4 <trace_printf>
/home/zhaoxuyang/hedb/src/enclave/trustzone/ops_ta.c:213
     718:	d5033e9f 	dsb	st
/home/zhaoxuyang/hedb/src/enclave/trustzone/ops_ta.c:214
     71c:	52800040 	mov	w0, #0x2                   	// #2
     720:	2a1503e5 	mov	w5, w21
     724:	b90002c0 	str	w0, [x22]
     728:	17ffffd4 	b	678 <TA_InvokeCommandEntryPoint+0x138>
loadkey():
/home/zhaoxuyang/hedb/src/enclave/trustzone/ops_ta.c:352
     72c:	71001c5f 	cmp	w2, #0x7
     730:	129fff33 	mov	w19, #0xffff0006            	// #-65530
     734:	1a9f1273 	csel	w19, w19, wzr, ne  // ne = any
     738:	17ffffa7 	b	5d4 <TA_InvokeCommandEntryPoint+0x94>
/home/zhaoxuyang/hedb/src/enclave/trustzone/ops_ta.c:349
     73c:	129fff33 	mov	w19, #0xffff0006            	// #-65530
     740:	17ffffa5 	b	5d4 <TA_InvokeCommandEntryPoint+0x94>

0000000000000744 <isgraph>:
isgraph():
/home/zhaoxuyang/hedb/src/enclave/trustzone/crypto.c:5
     744:	51008400 	sub	w0, w0, #0x21
     748:	7101741f 	cmp	w0, #0x5d
     74c:	1a9f87e0 	cset	w0, ls  // ls = plast
     750:	d65f03c0 	ret

0000000000000754 <_print_hex>:
_print_hex():
/home/zhaoxuyang/hedb/src/enclave/trustzone/crypto.c:8
     754:	a9bb7bfd 	stp	x29, x30, [sp, #-80]!
     758:	910003fd 	mov	x29, sp
     75c:	a90363f7 	stp	x23, x24, [sp, #48]
/home/zhaoxuyang/hedb/src/enclave/trustzone/crypto.c:14
     760:	f0000098 	adrp	x24, 13000 <SB5+0x84>
     764:	9111a718 	add	x24, x24, #0x469
/home/zhaoxuyang/hedb/src/enclave/trustzone/crypto.c:8
     768:	a9046bf9 	stp	x25, x26, [sp, #64]
/home/zhaoxuyang/hedb/src/enclave/trustzone/crypto.c:27
     76c:	f0000099 	adrp	x25, 13000 <SB5+0x84>
     770:	9111cf39 	add	x25, x25, #0x473
/home/zhaoxuyang/hedb/src/enclave/trustzone/crypto.c:8
     774:	a90153f3 	stp	x19, x20, [sp, #16]
/home/zhaoxuyang/hedb/src/enclave/trustzone/crypto.c:12
     778:	d2800013 	mov	x19, #0x0                   	// #0
/home/zhaoxuyang/hedb/src/enclave/trustzone/crypto.c:8
     77c:	aa0103f7 	mov	x23, x1
     780:	a9025bf5 	stp	x21, x22, [sp, #32]
/home/zhaoxuyang/hedb/src/enclave/trustzone/crypto.c:10
     784:	d2800015 	mov	x21, #0x0                   	// #0
/home/zhaoxuyang/hedb/src/enclave/trustzone/crypto.c:11
     788:	aa0003e1 	mov	x1, x0
/home/zhaoxuyang/hedb/src/enclave/trustzone/crypto.c:8
     78c:	aa0203f6 	mov	x22, x2
/home/zhaoxuyang/hedb/src/enclave/trustzone/crypto.c:11
     790:	f0000080 	adrp	x0, 13000 <SB5+0x84>
     794:	91116800 	add	x0, x0, #0x45a
     798:	940007f1 	bl	275c <printf>
/home/zhaoxuyang/hedb/src/enclave/trustzone/crypto.c:12 (discriminator 1)
     79c:	eb16027f 	cmp	x19, x22
     7a0:	540000e1 	b.ne	7bc <_print_hex+0x68>  // b.any
/home/zhaoxuyang/hedb/src/enclave/trustzone/crypto.c:44
     7a4:	a94153f3 	ldp	x19, x20, [sp, #16]
     7a8:	a9425bf5 	ldp	x21, x22, [sp, #32]
     7ac:	a94363f7 	ldp	x23, x24, [sp, #48]
     7b0:	a9446bf9 	ldp	x25, x26, [sp, #64]
     7b4:	a8c57bfd 	ldp	x29, x30, [sp], #80
     7b8:	d65f03c0 	ret
/home/zhaoxuyang/hedb/src/enclave/trustzone/crypto.c:14
     7bc:	38736ae1 	ldrb	w1, [x23, x19]
     7c0:	aa1803e0 	mov	x0, x24
/home/zhaoxuyang/hedb/src/enclave/trustzone/crypto.c:15
     7c4:	91000673 	add	x19, x19, #0x1
/home/zhaoxuyang/hedb/src/enclave/trustzone/crypto.c:14
     7c8:	940007e5 	bl	275c <printf>
/home/zhaoxuyang/hedb/src/enclave/trustzone/crypto.c:15
     7cc:	f2400e60 	ands	x0, x19, #0xf
     7d0:	540001e0 	b.eq	80c <_print_hex+0xb8>  // b.none
/home/zhaoxuyang/hedb/src/enclave/trustzone/crypto.c:15 (discriminator 1)
     7d4:	eb1302df 	cmp	x22, x19
     7d8:	540004e1 	b.ne	874 <_print_hex+0x120>  // b.any
/home/zhaoxuyang/hedb/src/enclave/trustzone/crypto.c:19
     7dc:	d2800214 	mov	x20, #0x10                  	// #16
     7e0:	cb000294 	sub	x20, x20, x0
/home/zhaoxuyang/hedb/src/enclave/trustzone/crypto.c:20
     7e4:	f1001e9f 	cmp	x20, #0x7
     7e8:	54000069 	b.ls	7f4 <_print_hex+0xa0>  // b.plast
/home/zhaoxuyang/hedb/src/enclave/trustzone/crypto.c:21
     7ec:	52800400 	mov	w0, #0x20                  	// #32
     7f0:	9400081d 	bl	2864 <putchar>
/home/zhaoxuyang/hedb/src/enclave/trustzone/crypto.c:24 (discriminator 2)
     7f4:	f000009a 	adrp	x26, 13000 <SB5+0x84>
     7f8:	9111bf5a 	add	x26, x26, #0x46f
     7fc:	aa1a03e0 	mov	x0, x26
     800:	940007d7 	bl	275c <printf>
/home/zhaoxuyang/hedb/src/enclave/trustzone/crypto.c:22 (discriminator 2)
     804:	f1000694 	subs	x20, x20, #0x1
     808:	54ffffa1 	b.ne	7fc <_print_hex+0xa8>  // b.any
/home/zhaoxuyang/hedb/src/enclave/trustzone/crypto.c:28
     80c:	aa1503f4 	mov	x20, x21
/home/zhaoxuyang/hedb/src/enclave/trustzone/crypto.c:27
     810:	aa1903e0 	mov	x0, x25
     814:	940007d2 	bl	275c <printf>
/home/zhaoxuyang/hedb/src/enclave/trustzone/crypto.c:28 (discriminator 1)
     818:	eb13029f 	cmp	x20, x19
     81c:	54000103 	b.cc	83c <_print_hex+0xe8>  // b.lo, b.ul, b.last
     820:	cb150260 	sub	x0, x19, x21
     824:	eb1302bf 	cmp	x21, x19
     828:	9a9f9000 	csel	x0, x0, xzr, ls  // ls = plast
     82c:	8b0002b5 	add	x21, x21, x0
/home/zhaoxuyang/hedb/src/enclave/trustzone/crypto.c:37
     830:	52800140 	mov	w0, #0xa                   	// #10
/home/zhaoxuyang/hedb/src/enclave/trustzone/crypto.c:41
     834:	9400080c 	bl	2864 <putchar>
     838:	17ffffd9 	b	79c <_print_hex+0x48>
/home/zhaoxuyang/hedb/src/enclave/trustzone/crypto.c:30
     83c:	f2400a9f 	tst	x20, #0x7
     840:	54000061 	b.ne	84c <_print_hex+0xf8>  // b.any
/home/zhaoxuyang/hedb/src/enclave/trustzone/crypto.c:31
     844:	52800400 	mov	w0, #0x20                  	// #32
     848:	94000807 	bl	2864 <putchar>
/home/zhaoxuyang/hedb/src/enclave/trustzone/crypto.c:32
     84c:	38746afa 	ldrb	w26, [x23, x20]
     850:	2a1a03e0 	mov	w0, w26
     854:	97ffffbc 	bl	744 <isgraph>
     858:	340000a0 	cbz	w0, 86c <_print_hex+0x118>
/home/zhaoxuyang/hedb/src/enclave/trustzone/crypto.c:33
     85c:	2a1a03e0 	mov	w0, w26
/home/zhaoxuyang/hedb/src/enclave/trustzone/crypto.c:28
     860:	91000694 	add	x20, x20, #0x1
/home/zhaoxuyang/hedb/src/enclave/trustzone/crypto.c:35
     864:	94000800 	bl	2864 <putchar>
/home/zhaoxuyang/hedb/src/enclave/trustzone/crypto.c:28
     868:	17ffffec 	b	818 <_print_hex+0xc4>
/home/zhaoxuyang/hedb/src/enclave/trustzone/crypto.c:35
     86c:	528005c0 	mov	w0, #0x2e                  	// #46
     870:	17fffffc 	b	860 <_print_hex+0x10c>
/home/zhaoxuyang/hedb/src/enclave/trustzone/crypto.c:39
     874:	f2400a7f 	tst	x19, #0x7
     878:	54fff921 	b.ne	79c <_print_hex+0x48>  // b.any
/home/zhaoxuyang/hedb/src/enclave/trustzone/crypto.c:41
     87c:	52800400 	mov	w0, #0x20                  	// #32
     880:	17ffffed 	b	834 <_print_hex+0xe0>

0000000000000884 <gcm_encrypt>:
gcm_encrypt():
/home/zhaoxuyang/hedb/src/enclave/trustzone/crypto.c:54
     884:	d10203ff 	sub	sp, sp, #0x80
     888:	b00000a4 	adrp	x4, 15000 <_DYNAMIC>
     88c:	a9027bfd 	stp	x29, x30, [sp, #32]
     890:	910083fd 	add	x29, sp, #0x20
     894:	f9409c84 	ldr	x4, [x4, #312]
     898:	a90563f7 	stp	x23, x24, [sp, #80]
     89c:	aa0003f7 	mov	x23, x0
     8a0:	f9400080 	ldr	x0, [x4]
     8a4:	f9003fe0 	str	x0, [sp, #120]
     8a8:	d2800000 	mov	x0, #0x0                   	// #0
/home/zhaoxuyang/hedb/src/enclave/trustzone/crypto.c:56
     8ac:	b00000a4 	adrp	x4, 15000 <_DYNAMIC>
/home/zhaoxuyang/hedb/src/enclave/trustzone/crypto.c:54
     8b0:	a90353f3 	stp	x19, x20, [sp, #48]
     8b4:	2a0103f4 	mov	w20, w1
/home/zhaoxuyang/hedb/src/enclave/trustzone/crypto.c:56
     8b8:	3967c080 	ldrb	w0, [x4, #2544]
/home/zhaoxuyang/hedb/src/enclave/trustzone/crypto.c:54
     8bc:	a9045bf5 	stp	x21, x22, [sp, #64]
     8c0:	aa0403f3 	mov	x19, x4
     8c4:	aa0203f5 	mov	x21, x2
     8c8:	aa0303f6 	mov	x22, x3
/home/zhaoxuyang/hedb/src/enclave/trustzone/crypto.c:56
     8cc:	350001a0 	cbnz	w0, 900 <gcm_encrypt+0x7c>
     8d0:	9127c098 	add	x24, x4, #0x9f0
/home/zhaoxuyang/hedb/src/enclave/trustzone/crypto.c:59
     8d4:	91002318 	add	x24, x24, #0x8
     8d8:	aa1803e0 	mov	x0, x24
     8dc:	940023a4 	bl	976c <mbedtls_gcm_init>
/home/zhaoxuyang/hedb/src/enclave/trustzone/crypto.c:63
     8e0:	aa1803e0 	mov	x0, x24
     8e4:	52802003 	mov	w3, #0x100                 	// #256
     8e8:	b00000a2 	adrp	x2, 15000 <_DYNAMIC>
     8ec:	52800041 	mov	w1, #0x2                   	// #2
     8f0:	91273042 	add	x2, x2, #0x9cc
     8f4:	940023a1 	bl	9778 <mbedtls_gcm_setkey>
/home/zhaoxuyang/hedb/src/enclave/trustzone/crypto.c:64
     8f8:	52800020 	mov	w0, #0x1                   	// #1
     8fc:	3927c260 	strb	w0, [x19, #2544]
/home/zhaoxuyang/hedb/src/enclave/trustzone/crypto.c:72
     900:	9101a3e1 	add	x1, sp, #0x68
     904:	d2800182 	mov	x2, #0xc                   	// #12
     908:	aa1503e0 	mov	x0, x21
/home/zhaoxuyang/hedb/src/enclave/trustzone/crypto.c:71
     90c:	f90037ff 	str	xzr, [sp, #104]
     910:	b90073ff 	str	wzr, [sp, #112]
/home/zhaoxuyang/hedb/src/enclave/trustzone/crypto.c:72
     914:	97fffdc3 	bl	20 <memcpy>
/home/zhaoxuyang/hedb/src/enclave/trustzone/crypto.c:68
     918:	910032a0 	add	x0, x21, #0xc
/home/zhaoxuyang/hedb/src/enclave/trustzone/crypto.c:75
     91c:	f9000be0 	str	x0, [sp, #16]
     920:	d2800200 	mov	x0, #0x10                  	// #16
     924:	f90007e0 	str	x0, [sp, #8]
/home/zhaoxuyang/hedb/src/enclave/trustzone/crypto.c:69
     928:	910072a0 	add	x0, x21, #0x1c
/home/zhaoxuyang/hedb/src/enclave/trustzone/crypto.c:75
     92c:	f90003e0 	str	x0, [sp]
     930:	9127c273 	add	x19, x19, #0x9f0
     934:	2a1403e2 	mov	w2, w20
     938:	d2800184 	mov	x4, #0xc                   	// #12
     93c:	52800021 	mov	w1, #0x1                   	// #1
     940:	aa1703e7 	mov	x7, x23
     944:	aa1503e3 	mov	x3, x21
     948:	91002260 	add	x0, x19, #0x8
     94c:	d2800006 	mov	x6, #0x0                   	// #0
     950:	d2800005 	mov	x5, #0x0                   	// #0
     954:	940024df 	bl	9cd0 <mbedtls_gcm_crypt_and_tag>
/home/zhaoxuyang/hedb/src/enclave/trustzone/crypto.c:110
     958:	b00000a4 	adrp	x4, 15000 <_DYNAMIC>
/home/zhaoxuyang/hedb/src/enclave/trustzone/crypto.c:94
     95c:	11007294 	add	w20, w20, #0x1c
/home/zhaoxuyang/hedb/src/enclave/trustzone/crypto.c:110
     960:	f9409c84 	ldr	x4, [x4, #312]
     964:	f9403fe1 	ldr	x1, [sp, #120]
     968:	f9400082 	ldr	x2, [x4]
     96c:	eb020021 	subs	x1, x1, x2
     970:	d2800002 	mov	x2, #0x0                   	// #0
/home/zhaoxuyang/hedb/src/enclave/trustzone/crypto.c:94
     974:	b90002d4 	str	w20, [x22]
/home/zhaoxuyang/hedb/src/enclave/trustzone/crypto.c:110
     978:	54000040 	b.eq	980 <gcm_encrypt+0xfc>  // b.none
     97c:	94000342 	bl	1684 <__stack_chk_fail>
     980:	a9427bfd 	ldp	x29, x30, [sp, #32]
     984:	a94353f3 	ldp	x19, x20, [sp, #48]
     988:	a9445bf5 	ldp	x21, x22, [sp, #64]
     98c:	a94563f7 	ldp	x23, x24, [sp, #80]
     990:	910203ff 	add	sp, sp, #0x80
     994:	d65f03c0 	ret

0000000000000998 <gcm_decrypt>:
gcm_decrypt():
/home/zhaoxuyang/hedb/src/enclave/trustzone/crypto.c:114
     998:	d10183ff 	sub	sp, sp, #0x60
/home/zhaoxuyang/hedb/src/enclave/trustzone/crypto.c:115
     99c:	b00000a4 	adrp	x4, 15000 <_DYNAMIC>
/home/zhaoxuyang/hedb/src/enclave/trustzone/crypto.c:114
     9a0:	a9017bfd 	stp	x29, x30, [sp, #16]
     9a4:	910043fd 	add	x29, sp, #0x10
     9a8:	a9035bf5 	stp	x21, x22, [sp, #48]
     9ac:	aa0003f5 	mov	x21, x0
/home/zhaoxuyang/hedb/src/enclave/trustzone/crypto.c:115
     9b0:	3967c080 	ldrb	w0, [x4, #2544]
/home/zhaoxuyang/hedb/src/enclave/trustzone/crypto.c:114
     9b4:	a90253f3 	stp	x19, x20, [sp, #32]
     9b8:	2a0103f4 	mov	w20, w1
     9bc:	aa0403f3 	mov	x19, x4
     9c0:	a90463f7 	stp	x23, x24, [sp, #64]
     9c4:	aa0203f8 	mov	x24, x2
     9c8:	f9002bf9 	str	x25, [sp, #80]
     9cc:	aa0303f9 	mov	x25, x3
/home/zhaoxuyang/hedb/src/enclave/trustzone/crypto.c:115
     9d0:	35000200 	cbnz	w0, a10 <gcm_decrypt+0x78>
     9d4:	9127c096 	add	x22, x4, #0x9f0
/home/zhaoxuyang/hedb/src/enclave/trustzone/crypto.c:120
     9d8:	b00000b7 	adrp	x23, 15000 <_DYNAMIC>
/home/zhaoxuyang/hedb/src/enclave/trustzone/crypto.c:118
     9dc:	910022d6 	add	x22, x22, #0x8
/home/zhaoxuyang/hedb/src/enclave/trustzone/crypto.c:120
     9e0:	912732f7 	add	x23, x23, #0x9cc
/home/zhaoxuyang/hedb/src/enclave/trustzone/crypto.c:118
     9e4:	aa1603e0 	mov	x0, x22
     9e8:	94002361 	bl	976c <mbedtls_gcm_init>
/home/zhaoxuyang/hedb/src/enclave/trustzone/crypto.c:120
     9ec:	aa1703e0 	mov	x0, x23
     9f0:	9400032f 	bl	16ac <strlen>
     9f4:	aa1703e2 	mov	x2, x23
     9f8:	531d7003 	lsl	w3, w0, #3
     9fc:	52800041 	mov	w1, #0x2                   	// #2
     a00:	aa1603e0 	mov	x0, x22
     a04:	9400235d 	bl	9778 <mbedtls_gcm_setkey>
/home/zhaoxuyang/hedb/src/enclave/trustzone/crypto.c:121
     a08:	52800020 	mov	w0, #0x1                   	// #1
     a0c:	3927c260 	strb	w0, [x19, #2544]
/home/zhaoxuyang/hedb/src/enclave/trustzone/crypto.c:129
     a10:	51007281 	sub	w1, w20, #0x1c
/home/zhaoxuyang/hedb/src/enclave/trustzone/crypto.c:130
     a14:	b9000321 	str	w1, [x25]
/home/zhaoxuyang/hedb/src/enclave/trustzone/crypto.c:126
     a18:	910072a0 	add	x0, x21, #0x1c
/home/zhaoxuyang/hedb/src/enclave/trustzone/crypto.c:132
     a1c:	a90063e0 	stp	x0, x24, [sp]
     a20:	9127c273 	add	x19, x19, #0x9f0
     a24:	910032a6 	add	x6, x21, #0xc
     a28:	aa1503e2 	mov	x2, x21
     a2c:	91002260 	add	x0, x19, #0x8
     a30:	d2800207 	mov	x7, #0x10                  	// #16
     a34:	d2800005 	mov	x5, #0x0                   	// #0
     a38:	d2800004 	mov	x4, #0x0                   	// #0
     a3c:	d2800183 	mov	x3, #0xc                   	// #12
     a40:	940024c7 	bl	9d5c <mbedtls_gcm_auth_decrypt>
/home/zhaoxuyang/hedb/src/enclave/trustzone/crypto.c:135
     a44:	a9417bfd 	ldp	x29, x30, [sp, #16]
     a48:	a94253f3 	ldp	x19, x20, [sp, #32]
     a4c:	a9435bf5 	ldp	x21, x22, [sp, #48]
     a50:	a94463f7 	ldp	x23, x24, [sp, #64]
     a54:	f9402bf9 	ldr	x25, [sp, #80]
     a58:	910183ff 	add	sp, sp, #0x60
     a5c:	d65f03c0 	ret

0000000000000a60 <enc_float32_cmp>:
enc_float32_cmp():
/home/zhaoxuyang/hedb/src/enclave/trustzone/../enc_float_ops.c:8
     a60:	a9bd7bfd 	stp	x29, x30, [sp, #-48]!
     a64:	b00000a1 	adrp	x1, 15000 <_DYNAMIC>
/home/zhaoxuyang/hedb/src/enclave/trustzone/../enc_float_ops.c:11
     a68:	d2800083 	mov	x3, #0x4                   	// #4
/home/zhaoxuyang/hedb/src/enclave/trustzone/../enc_float_ops.c:8
     a6c:	910003fd 	mov	x29, sp
     a70:	f9409c21 	ldr	x1, [x1, #312]
     a74:	f9000bf3 	str	x19, [sp, #16]
     a78:	aa0003f3 	mov	x19, x0
/home/zhaoxuyang/hedb/src/enclave/trustzone/../enc_float_ops.c:11
     a7c:	910083e2 	add	x2, sp, #0x20
/home/zhaoxuyang/hedb/src/enclave/trustzone/../enc_float_ops.c:8
     a80:	f9400020 	ldr	x0, [x1]
     a84:	f90017e0 	str	x0, [sp, #40]
     a88:	d2800000 	mov	x0, #0x0                   	// #0
/home/zhaoxuyang/hedb/src/enclave/trustzone/../enc_float_ops.c:11
     a8c:	d2800401 	mov	x1, #0x20                  	// #32
     a90:	91003260 	add	x0, x19, #0xc
     a94:	97fffe2c 	bl	344 <decrypt_bytes>
/home/zhaoxuyang/hedb/src/enclave/trustzone/../enc_float_ops.c:12
     a98:	350001c0 	cbnz	w0, ad0 <enc_float32_cmp+0x70>
/home/zhaoxuyang/hedb/src/enclave/trustzone/../enc_float_ops.c:15
     a9c:	910093e2 	add	x2, sp, #0x24
     aa0:	9100b260 	add	x0, x19, #0x2c
     aa4:	d2800083 	mov	x3, #0x4                   	// #4
     aa8:	d2800401 	mov	x1, #0x20                  	// #32
     aac:	97fffe26 	bl	344 <decrypt_bytes>
/home/zhaoxuyang/hedb/src/enclave/trustzone/../enc_float_ops.c:16
     ab0:	35000100 	cbnz	w0, ad0 <enc_float32_cmp+0x70>
/home/zhaoxuyang/hedb/src/enclave/trustzone/../enc_float_ops.c:19
     ab4:	2d4403e1 	ldp	s1, s0, [sp, #32]
     ab8:	1e202020 	fcmp	s1, s0
     abc:	540001a0 	b.eq	af0 <enc_float32_cmp+0x90>  // b.none
/home/zhaoxuyang/hedb/src/enclave/trustzone/../enc_float_ops.c:19 (discriminator 1)
     ac0:	1e202030 	fcmpe	s1, s0
     ac4:	52800021 	mov	w1, #0x1                   	// #1
     ac8:	5a815421 	cneg	w1, w1, mi  // mi = first
/home/zhaoxuyang/hedb/src/enclave/trustzone/../enc_float_ops.c:19 (discriminator 8)
     acc:	b9004e61 	str	w1, [x19, #76]
/home/zhaoxuyang/hedb/src/enclave/trustzone/../enc_float_ops.c:22
     ad0:	b00000a1 	adrp	x1, 15000 <_DYNAMIC>
     ad4:	f9409c21 	ldr	x1, [x1, #312]
     ad8:	f94017e2 	ldr	x2, [sp, #40]
     adc:	f9400023 	ldr	x3, [x1]
     ae0:	eb030042 	subs	x2, x2, x3
     ae4:	d2800003 	mov	x3, #0x0                   	// #0
     ae8:	54000080 	b.eq	af8 <enc_float32_cmp+0x98>  // b.none
     aec:	940002e6 	bl	1684 <__stack_chk_fail>
/home/zhaoxuyang/hedb/src/enclave/trustzone/../enc_float_ops.c:19
     af0:	52800001 	mov	w1, #0x0                   	// #0
     af4:	17fffff6 	b	acc <enc_float32_cmp+0x6c>
/home/zhaoxuyang/hedb/src/enclave/trustzone/../enc_float_ops.c:22
     af8:	f9400bf3 	ldr	x19, [sp, #16]
     afc:	a8c37bfd 	ldp	x29, x30, [sp], #48
     b00:	d65f03c0 	ret

0000000000000b04 <enc_float32_calc>:
enc_float32_calc():
/home/zhaoxuyang/hedb/src/enclave/trustzone/../enc_float_ops.c:38
     b04:	a9bc7bfd 	stp	x29, x30, [sp, #-64]!
     b08:	b00000a1 	adrp	x1, 15000 <_DYNAMIC>
/home/zhaoxuyang/hedb/src/enclave/trustzone/../enc_float_ops.c:41
     b0c:	d2800083 	mov	x3, #0x4                   	// #4
/home/zhaoxuyang/hedb/src/enclave/trustzone/../enc_float_ops.c:38
     b10:	910003fd 	mov	x29, sp
     b14:	f9409c21 	ldr	x1, [x1, #312]
     b18:	f9000bf3 	str	x19, [sp, #16]
     b1c:	aa0003f3 	mov	x19, x0
/home/zhaoxuyang/hedb/src/enclave/trustzone/../enc_float_ops.c:41
     b20:	9100b3e2 	add	x2, sp, #0x2c
/home/zhaoxuyang/hedb/src/enclave/trustzone/../enc_float_ops.c:38
     b24:	f9400020 	ldr	x0, [x1]
     b28:	f9001fe0 	str	x0, [sp, #56]
     b2c:	d2800000 	mov	x0, #0x0                   	// #0
/home/zhaoxuyang/hedb/src/enclave/trustzone/../enc_float_ops.c:41
     b30:	d2800401 	mov	x1, #0x20                  	// #32
     b34:	91004260 	add	x0, x19, #0x10
     b38:	97fffe03 	bl	344 <decrypt_bytes>
/home/zhaoxuyang/hedb/src/enclave/trustzone/../enc_float_ops.c:42
     b3c:	35000320 	cbnz	w0, ba0 <enc_float32_calc+0x9c>
/home/zhaoxuyang/hedb/src/enclave/trustzone/../enc_float_ops.c:45
     b40:	9100c3e2 	add	x2, sp, #0x30
     b44:	9100c260 	add	x0, x19, #0x30
     b48:	d2800083 	mov	x3, #0x4                   	// #4
     b4c:	d2800401 	mov	x1, #0x20                  	// #32
     b50:	97fffdfd 	bl	344 <decrypt_bytes>
/home/zhaoxuyang/hedb/src/enclave/trustzone/../enc_float_ops.c:46
     b54:	35000260 	cbnz	w0, ba0 <enc_float32_calc+0x9c>
/home/zhaoxuyang/hedb/src/enclave/trustzone/../enc_float_ops.c:49
     b58:	b9400660 	ldr	w0, [x19, #4]
     b5c:	51019400 	sub	w0, w0, #0x65
     b60:	7100201f 	cmp	w0, #0x8
     b64:	54000148 	b.hi	b8c <enc_float32_calc+0x88>  // b.pmore
     b68:	d0000081 	adrp	x1, 12000 <iv_test_data+0x98>
     b6c:	91145021 	add	x1, x1, #0x514
     b70:	38604820 	ldrb	w0, [x1, w0, uxtw]
     b74:	10000061 	adr	x1, b80 <enc_float32_calc+0x7c>
     b78:	8b208820 	add	x0, x1, w0, sxtb #2
     b7c:	d61f0000 	br	x0
/home/zhaoxuyang/hedb/src/enclave/trustzone/../enc_float_ops.c:52
     b80:	2d4587e0 	ldp	s0, s1, [sp, #44]
     b84:	1e212800 	fadd	s0, s0, s1
/home/zhaoxuyang/hedb/src/enclave/trustzone/../enc_float_ops.c:67
     b88:	bd0037e0 	str	s0, [sp, #52]
/home/zhaoxuyang/hedb/src/enclave/trustzone/../enc_float_ops.c:73
     b8c:	91014262 	add	x2, x19, #0x50
     b90:	9100d3e0 	add	x0, sp, #0x34
     b94:	d2800403 	mov	x3, #0x20                  	// #32
     b98:	d2800081 	mov	x1, #0x4                   	// #4
     b9c:	97fffe30 	bl	45c <encrypt_bytes>
/home/zhaoxuyang/hedb/src/enclave/trustzone/../enc_float_ops.c:76
     ba0:	b00000a1 	adrp	x1, 15000 <_DYNAMIC>
     ba4:	f9409c21 	ldr	x1, [x1, #312]
     ba8:	f9401fe2 	ldr	x2, [sp, #56]
     bac:	f9400023 	ldr	x3, [x1]
     bb0:	eb030042 	subs	x2, x2, x3
     bb4:	d2800003 	mov	x3, #0x0                   	// #0
     bb8:	54000340 	b.eq	c20 <enc_float32_calc+0x11c>  // b.none
     bbc:	940002b2 	bl	1684 <__stack_chk_fail>
/home/zhaoxuyang/hedb/src/enclave/trustzone/../enc_float_ops.c:55
     bc0:	2d4587e0 	ldp	s0, s1, [sp, #44]
     bc4:	1e213800 	fsub	s0, s0, s1
     bc8:	17fffff0 	b	b88 <enc_float32_calc+0x84>
/home/zhaoxuyang/hedb/src/enclave/trustzone/../enc_float_ops.c:58
     bcc:	2d4587e0 	ldp	s0, s1, [sp, #44]
     bd0:	1e210800 	fmul	s0, s0, s1
     bd4:	17ffffed 	b	b88 <enc_float32_calc+0x84>
/home/zhaoxuyang/hedb/src/enclave/trustzone/../enc_float_ops.c:61
     bd8:	2d4587e0 	ldp	s0, s1, [sp, #44]
     bdc:	1e211800 	fdiv	s0, s0, s1
     be0:	17ffffea 	b	b88 <enc_float32_calc+0x84>
/home/zhaoxuyang/hedb/src/enclave/trustzone/../enc_float_ops.c:64
     be4:	bd4033e0 	ldr	s0, [sp, #48]
     be8:	1e380000 	fcvtzs	w0, s0
     bec:	bd402fe0 	ldr	s0, [sp, #44]
     bf0:	1e22c000 	fcvt	d0, s0
     bf4:	94000068 	bl	d94 <pow>
     bf8:	1e624000 	fcvt	s0, d0
     bfc:	17ffffe3 	b	b88 <enc_float32_calc+0x84>
/home/zhaoxuyang/hedb/src/enclave/trustzone/../enc_float_ops.c:67
     c00:	bd402fe0 	ldr	s0, [sp, #44]
     c04:	1e380002 	fcvtzs	w2, s0
     c08:	bd4033e0 	ldr	s0, [sp, #48]
     c0c:	1e380001 	fcvtzs	w1, s0
     c10:	1ac10c40 	sdiv	w0, w2, w1
     c14:	1b018800 	msub	w0, w0, w1, w2
     c18:	1e220000 	scvtf	s0, w0
     c1c:	17ffffdb 	b	b88 <enc_float32_calc+0x84>
/home/zhaoxuyang/hedb/src/enclave/trustzone/../enc_float_ops.c:76
     c20:	f9400bf3 	ldr	x19, [sp, #16]
     c24:	a8c47bfd 	ldp	x29, x30, [sp], #64
     c28:	d65f03c0 	ret

0000000000000c2c <enc_float32_bulk>:
enc_float32_bulk():
/home/zhaoxuyang/hedb/src/enclave/trustzone/../enc_float_ops.c:83
     c2c:	a9bb7bfd 	stp	x29, x30, [sp, #-80]!
     c30:	b00000a1 	adrp	x1, 15000 <_DYNAMIC>
     c34:	910003fd 	mov	x29, sp
     c38:	f9409c21 	ldr	x1, [x1, #312]
     c3c:	a90153f3 	stp	x19, x20, [sp, #16]
     c40:	aa0003f3 	mov	x19, x0
     c44:	f9400020 	ldr	x0, [x1]
     c48:	f90027e0 	str	x0, [sp, #72]
     c4c:	d2800000 	mov	x0, #0x0                   	// #0
     c50:	a9025bf5 	stp	x21, x22, [sp, #32]
     c54:	91004275 	add	x21, x19, #0x10
/home/zhaoxuyang/hedb/src/enclave/trustzone/../enc_float_ops.c:84
     c58:	b9400e76 	ldr	w22, [x19, #12]
/home/zhaoxuyang/hedb/src/enclave/trustzone/../enc_float_ops.c:87
     c5c:	52800014 	mov	w20, #0x0                   	// #0
/home/zhaoxuyang/hedb/src/enclave/trustzone/../enc_float_ops.c:83
     c60:	f9001bf7 	str	x23, [sp, #48]
/home/zhaoxuyang/hedb/src/enclave/trustzone/../enc_float_ops.c:90
     c64:	910113f7 	add	x23, sp, #0x44
/home/zhaoxuyang/hedb/src/enclave/trustzone/../enc_float_ops.c:86
     c68:	29087fff 	stp	wzr, wzr, [sp, #64]
/home/zhaoxuyang/hedb/src/enclave/trustzone/../enc_float_ops.c:88
     c6c:	6b16029f 	cmp	w20, w22
     c70:	540001eb 	b.lt	cac <enc_float32_bulk+0x80>  // b.tstop
/home/zhaoxuyang/hedb/src/enclave/trustzone/../enc_float_ops.c:105
     c74:	d2840200 	mov	x0, #0x2010                	// #8208
     c78:	d2800403 	mov	x3, #0x20                  	// #32
     c7c:	8b000262 	add	x2, x19, x0
     c80:	d2800081 	mov	x1, #0x4                   	// #4
     c84:	910103e0 	add	x0, sp, #0x40
     c88:	97fffdf5 	bl	45c <encrypt_bytes>
/home/zhaoxuyang/hedb/src/enclave/trustzone/../enc_float_ops.c:107
     c8c:	b00000a1 	adrp	x1, 15000 <_DYNAMIC>
     c90:	f9409c21 	ldr	x1, [x1, #312]
     c94:	f94027e2 	ldr	x2, [sp, #72]
     c98:	f9400023 	ldr	x3, [x1]
     c9c:	eb030042 	subs	x2, x2, x3
     ca0:	d2800003 	mov	x3, #0x0                   	// #0
     ca4:	54000220 	b.eq	ce8 <enc_float32_bulk+0xbc>  // b.none
     ca8:	94000277 	bl	1684 <__stack_chk_fail>
/home/zhaoxuyang/hedb/src/enclave/trustzone/../enc_float_ops.c:90
     cac:	aa1703e2 	mov	x2, x23
     cb0:	aa1503e0 	mov	x0, x21
     cb4:	d2800083 	mov	x3, #0x4                   	// #4
     cb8:	d2800401 	mov	x1, #0x20                  	// #32
     cbc:	97fffda2 	bl	344 <decrypt_bytes>
/home/zhaoxuyang/hedb/src/enclave/trustzone/../enc_float_ops.c:91
     cc0:	35fffe60 	cbnz	w0, c8c <enc_float32_bulk+0x60>
/home/zhaoxuyang/hedb/src/enclave/trustzone/../enc_float_ops.c:94
     cc4:	b9400660 	ldr	w0, [x19, #4]
     cc8:	7101b81f 	cmp	w0, #0x6e
     ccc:	54000081 	b.ne	cdc <enc_float32_bulk+0xb0>  // b.any
/home/zhaoxuyang/hedb/src/enclave/trustzone/../enc_float_ops.c:97
     cd0:	2d4807e0 	ldp	s0, s1, [sp, #64]
     cd4:	1e212800 	fadd	s0, s0, s1
     cd8:	bd0043e0 	str	s0, [sp, #64]
/home/zhaoxuyang/hedb/src/enclave/trustzone/../enc_float_ops.c:102
     cdc:	11000694 	add	w20, w20, #0x1
     ce0:	910082b5 	add	x21, x21, #0x20
     ce4:	17ffffe2 	b	c6c <enc_float32_bulk+0x40>
/home/zhaoxuyang/hedb/src/enclave/trustzone/../enc_float_ops.c:107
     ce8:	a94153f3 	ldp	x19, x20, [sp, #16]
     cec:	a9425bf5 	ldp	x21, x22, [sp, #32]
     cf0:	f9401bf7 	ldr	x23, [sp, #48]
     cf4:	a8c57bfd 	ldp	x29, x30, [sp], #80
     cf8:	d65f03c0 	ret

0000000000000cfc <enc_timestamp_cmp>:
enc_timestamp_cmp():
/home/zhaoxuyang/hedb/src/enclave/trustzone/../enc_timestamp_ops.c:4
     cfc:	a9bc7bfd 	stp	x29, x30, [sp, #-64]!
     d00:	b00000a1 	adrp	x1, 15000 <_DYNAMIC>
/home/zhaoxuyang/hedb/src/enclave/trustzone/../enc_timestamp_ops.c:9
     d04:	d2800103 	mov	x3, #0x8                   	// #8
/home/zhaoxuyang/hedb/src/enclave/trustzone/../enc_timestamp_ops.c:4
     d08:	910003fd 	mov	x29, sp
     d0c:	f9409c21 	ldr	x1, [x1, #312]
     d10:	f9000bf3 	str	x19, [sp, #16]
     d14:	aa0003f3 	mov	x19, x0
/home/zhaoxuyang/hedb/src/enclave/trustzone/../enc_timestamp_ops.c:9
     d18:	9100a3e2 	add	x2, sp, #0x28
/home/zhaoxuyang/hedb/src/enclave/trustzone/../enc_timestamp_ops.c:4
     d1c:	f9400020 	ldr	x0, [x1]
     d20:	f9001fe0 	str	x0, [sp, #56]
     d24:	d2800000 	mov	x0, #0x0                   	// #0
/home/zhaoxuyang/hedb/src/enclave/trustzone/../enc_timestamp_ops.c:9
     d28:	d2800481 	mov	x1, #0x24                  	// #36
     d2c:	91003260 	add	x0, x19, #0xc
     d30:	97fffd85 	bl	344 <decrypt_bytes>
/home/zhaoxuyang/hedb/src/enclave/trustzone/../enc_timestamp_ops.c:10
     d34:	350001a0 	cbnz	w0, d68 <enc_timestamp_cmp+0x6c>
/home/zhaoxuyang/hedb/src/enclave/trustzone/../enc_timestamp_ops.c:13
     d38:	9100c3e2 	add	x2, sp, #0x30
     d3c:	9100c260 	add	x0, x19, #0x30
     d40:	d2800103 	mov	x3, #0x8                   	// #8
     d44:	d2800481 	mov	x1, #0x24                  	// #36
     d48:	97fffd7f 	bl	344 <decrypt_bytes>
/home/zhaoxuyang/hedb/src/enclave/trustzone/../enc_timestamp_ops.c:14
     d4c:	350000e0 	cbnz	w0, d68 <enc_timestamp_cmp+0x6c>
/home/zhaoxuyang/hedb/src/enclave/trustzone/../enc_timestamp_ops.c:17
     d50:	a9428be3 	ldp	x3, x2, [sp, #40]
     d54:	52800021 	mov	w1, #0x1                   	// #1
     d58:	eb02007f 	cmp	x3, x2
     d5c:	5a81a421 	cneg	w1, w1, lt  // lt = tstop
     d60:	1a9f1021 	csel	w1, w1, wzr, ne  // ne = any
     d64:	b9005661 	str	w1, [x19, #84]
/home/zhaoxuyang/hedb/src/enclave/trustzone/../enc_timestamp_ops.c:20
     d68:	b00000a1 	adrp	x1, 15000 <_DYNAMIC>
     d6c:	f9409c21 	ldr	x1, [x1, #312]
     d70:	f9401fe2 	ldr	x2, [sp, #56]
     d74:	f9400023 	ldr	x3, [x1]
     d78:	eb030042 	subs	x2, x2, x3
     d7c:	d2800003 	mov	x3, #0x0                   	// #0
     d80:	54000040 	b.eq	d88 <enc_timestamp_cmp+0x8c>  // b.none
     d84:	94000240 	bl	1684 <__stack_chk_fail>
     d88:	f9400bf3 	ldr	x19, [sp, #16]
     d8c:	a8c47bfd 	ldp	x29, x30, [sp], #64
     d90:	d65f03c0 	ret

0000000000000d94 <pow>:
pow():
/home/zhaoxuyang/hedb/src/enclave/trustzone/../enc_int_ops.c:8
     d94:	34000300 	cbz	w0, df4 <pow+0x60>
/home/zhaoxuyang/hedb/src/enclave/trustzone/../enc_int_ops.c:6
     d98:	a9be7bfd 	stp	x29, x30, [sp, #-32]!
     d9c:	910003fd 	mov	x29, sp
     da0:	f9000bf3 	str	x19, [sp, #16]
     da4:	2a0003f3 	mov	w19, w0
/home/zhaoxuyang/hedb/src/enclave/trustzone/../enc_int_ops.c:10
     da8:	52800040 	mov	w0, #0x2                   	// #2
/home/zhaoxuyang/hedb/src/enclave/trustzone/../enc_int_ops.c:6
     dac:	fd000fe8 	str	d8, [sp, #24]
     db0:	1e604008 	fmov	d8, d0
/home/zhaoxuyang/hedb/src/enclave/trustzone/../enc_int_ops.c:10
     db4:	1ac00e60 	sdiv	w0, w19, w0
     db8:	97fffff7 	bl	d94 <pow>
/home/zhaoxuyang/hedb/src/enclave/trustzone/../enc_int_ops.c:11
     dbc:	370000d3 	tbnz	w19, #0, dd4 <pow+0x40>
/home/zhaoxuyang/hedb/src/enclave/trustzone/../enc_int_ops.c:12
     dc0:	1e600800 	fmul	d0, d0, d0
/home/zhaoxuyang/hedb/src/enclave/trustzone/../enc_int_ops.c:19
     dc4:	f9400bf3 	ldr	x19, [sp, #16]
     dc8:	fd400fe8 	ldr	d8, [sp, #24]
     dcc:	a8c27bfd 	ldp	x29, x30, [sp], #32
     dd0:	d65f03c0 	ret
/home/zhaoxuyang/hedb/src/enclave/trustzone/../enc_int_ops.c:14
     dd4:	7100027f 	cmp	w19, #0x0
     dd8:	5400008d 	b.le	de8 <pow+0x54>
/home/zhaoxuyang/hedb/src/enclave/trustzone/../enc_int_ops.c:15
     ddc:	1e600908 	fmul	d8, d8, d0
     de0:	1e600900 	fmul	d0, d8, d0
     de4:	17fffff8 	b	dc4 <pow+0x30>
/home/zhaoxuyang/hedb/src/enclave/trustzone/../enc_int_ops.c:17
     de8:	1e600800 	fmul	d0, d0, d0
     dec:	1e681800 	fdiv	d0, d0, d8
     df0:	17fffff5 	b	dc4 <pow+0x30>
/home/zhaoxuyang/hedb/src/enclave/trustzone/../enc_int_ops.c:9
     df4:	1e6e1000 	fmov	d0, #1.000000000000000000e+00
/home/zhaoxuyang/hedb/src/enclave/trustzone/../enc_int_ops.c:19
     df8:	d65f03c0 	ret

0000000000000dfc <enc_int32_calc>:
enc_int32_calc():
/home/zhaoxuyang/hedb/src/enclave/trustzone/../enc_int_ops.c:22
     dfc:	a9bc7bfd 	stp	x29, x30, [sp, #-64]!
     e00:	b00000a1 	adrp	x1, 15000 <_DYNAMIC>
/home/zhaoxuyang/hedb/src/enclave/trustzone/../enc_int_ops.c:25
     e04:	d2800083 	mov	x3, #0x4                   	// #4
/home/zhaoxuyang/hedb/src/enclave/trustzone/../enc_int_ops.c:22
     e08:	910003fd 	mov	x29, sp
     e0c:	f9409c21 	ldr	x1, [x1, #312]
     e10:	f9000bf3 	str	x19, [sp, #16]
     e14:	aa0003f3 	mov	x19, x0
/home/zhaoxuyang/hedb/src/enclave/trustzone/../enc_int_ops.c:25
     e18:	9100b3e2 	add	x2, sp, #0x2c
/home/zhaoxuyang/hedb/src/enclave/trustzone/../enc_int_ops.c:22
     e1c:	f9400020 	ldr	x0, [x1]
     e20:	f9001fe0 	str	x0, [sp, #56]
     e24:	d2800000 	mov	x0, #0x0                   	// #0
/home/zhaoxuyang/hedb/src/enclave/trustzone/../enc_int_ops.c:25
     e28:	d2800401 	mov	x1, #0x20                  	// #32
     e2c:	91004260 	add	x0, x19, #0x10
     e30:	97fffd45 	bl	344 <decrypt_bytes>
/home/zhaoxuyang/hedb/src/enclave/trustzone/../enc_int_ops.c:26
     e34:	35000320 	cbnz	w0, e98 <enc_int32_calc+0x9c>
/home/zhaoxuyang/hedb/src/enclave/trustzone/../enc_int_ops.c:29
     e38:	9100c3e2 	add	x2, sp, #0x30
     e3c:	9100c260 	add	x0, x19, #0x30
     e40:	d2800083 	mov	x3, #0x4                   	// #4
     e44:	d2800401 	mov	x1, #0x20                  	// #32
     e48:	97fffd3f 	bl	344 <decrypt_bytes>
/home/zhaoxuyang/hedb/src/enclave/trustzone/../enc_int_ops.c:30
     e4c:	35000260 	cbnz	w0, e98 <enc_int32_calc+0x9c>
/home/zhaoxuyang/hedb/src/enclave/trustzone/../enc_int_ops.c:33
     e50:	b9400660 	ldr	w0, [x19, #4]
     e54:	51000400 	sub	w0, w0, #0x1
     e58:	7100201f 	cmp	w0, #0x8
     e5c:	54000148 	b.hi	e84 <enc_int32_calc+0x88>  // b.pmore
     e60:	d0000081 	adrp	x1, 12000 <iv_test_data+0x98>
     e64:	91148021 	add	x1, x1, #0x520
     e68:	38604820 	ldrb	w0, [x1, w0, uxtw]
     e6c:	10000061 	adr	x1, e78 <enc_int32_calc+0x7c>
     e70:	8b208820 	add	x0, x1, w0, sxtb #2
     e74:	d61f0000 	br	x0
/home/zhaoxuyang/hedb/src/enclave/trustzone/../enc_int_ops.c:36
     e78:	294587e0 	ldp	w0, w1, [sp, #44]
     e7c:	0b010000 	add	w0, w0, w1
/home/zhaoxuyang/hedb/src/enclave/trustzone/../enc_int_ops.c:51
     e80:	b90037e0 	str	w0, [sp, #52]
/home/zhaoxuyang/hedb/src/enclave/trustzone/../enc_int_ops.c:57
     e84:	91014262 	add	x2, x19, #0x50
     e88:	9100d3e0 	add	x0, sp, #0x34
     e8c:	d2800403 	mov	x3, #0x20                  	// #32
     e90:	d2800081 	mov	x1, #0x4                   	// #4
     e94:	97fffd72 	bl	45c <encrypt_bytes>
/home/zhaoxuyang/hedb/src/enclave/trustzone/../enc_int_ops.c:60
     e98:	b00000a1 	adrp	x1, 15000 <_DYNAMIC>
     e9c:	f9409c21 	ldr	x1, [x1, #312]
     ea0:	f9401fe2 	ldr	x2, [sp, #56]
     ea4:	f9400023 	ldr	x3, [x1]
     ea8:	eb030042 	subs	x2, x2, x3
     eac:	d2800003 	mov	x3, #0x0                   	// #0
     eb0:	54000280 	b.eq	f00 <enc_int32_calc+0x104>  // b.none
     eb4:	940001f4 	bl	1684 <__stack_chk_fail>
/home/zhaoxuyang/hedb/src/enclave/trustzone/../enc_int_ops.c:39
     eb8:	294587e0 	ldp	w0, w1, [sp, #44]
     ebc:	4b010000 	sub	w0, w0, w1
     ec0:	17fffff0 	b	e80 <enc_int32_calc+0x84>
/home/zhaoxuyang/hedb/src/enclave/trustzone/../enc_int_ops.c:42
     ec4:	294587e0 	ldp	w0, w1, [sp, #44]
     ec8:	1b017c00 	mul	w0, w0, w1
     ecc:	17ffffed 	b	e80 <enc_int32_calc+0x84>
/home/zhaoxuyang/hedb/src/enclave/trustzone/../enc_int_ops.c:45
     ed0:	294587e0 	ldp	w0, w1, [sp, #44]
     ed4:	1ac10c00 	sdiv	w0, w0, w1
     ed8:	17ffffea 	b	e80 <enc_int32_calc+0x84>
/home/zhaoxuyang/hedb/src/enclave/trustzone/../enc_int_ops.c:48
     edc:	294583e1 	ldp	w1, w0, [sp, #44]
     ee0:	1e620020 	scvtf	d0, w1
     ee4:	97ffffac 	bl	d94 <pow>
     ee8:	1e780000 	fcvtzs	w0, d0
     eec:	17ffffe5 	b	e80 <enc_int32_calc+0x84>
/home/zhaoxuyang/hedb/src/enclave/trustzone/../enc_int_ops.c:51
     ef0:	294587e2 	ldp	w2, w1, [sp, #44]
     ef4:	1ac10c40 	sdiv	w0, w2, w1
     ef8:	1b018800 	msub	w0, w0, w1, w2
     efc:	17ffffe1 	b	e80 <enc_int32_calc+0x84>
/home/zhaoxuyang/hedb/src/enclave/trustzone/../enc_int_ops.c:60
     f00:	f9400bf3 	ldr	x19, [sp, #16]
     f04:	a8c47bfd 	ldp	x29, x30, [sp], #64
     f08:	d65f03c0 	ret

0000000000000f0c <enc_int32_cmp>:
enc_int32_cmp():
/home/zhaoxuyang/hedb/src/enclave/trustzone/../enc_int_ops.c:62
     f0c:	a9bd7bfd 	stp	x29, x30, [sp, #-48]!
     f10:	b00000a1 	adrp	x1, 15000 <_DYNAMIC>
/home/zhaoxuyang/hedb/src/enclave/trustzone/../enc_int_ops.c:65
     f14:	d2800083 	mov	x3, #0x4                   	// #4
/home/zhaoxuyang/hedb/src/enclave/trustzone/../enc_int_ops.c:62
     f18:	910003fd 	mov	x29, sp
     f1c:	f9409c21 	ldr	x1, [x1, #312]
     f20:	f9000bf3 	str	x19, [sp, #16]
     f24:	aa0003f3 	mov	x19, x0
/home/zhaoxuyang/hedb/src/enclave/trustzone/../enc_int_ops.c:65
     f28:	910083e2 	add	x2, sp, #0x20
/home/zhaoxuyang/hedb/src/enclave/trustzone/../enc_int_ops.c:62
     f2c:	f9400020 	ldr	x0, [x1]
     f30:	f90017e0 	str	x0, [sp, #40]
     f34:	d2800000 	mov	x0, #0x0                   	// #0
/home/zhaoxuyang/hedb/src/enclave/trustzone/../enc_int_ops.c:65
     f38:	d2800401 	mov	x1, #0x20                  	// #32
     f3c:	91003260 	add	x0, x19, #0xc
     f40:	97fffd01 	bl	344 <decrypt_bytes>
/home/zhaoxuyang/hedb/src/enclave/trustzone/../enc_int_ops.c:66
     f44:	350001a0 	cbnz	w0, f78 <enc_int32_cmp+0x6c>
/home/zhaoxuyang/hedb/src/enclave/trustzone/../enc_int_ops.c:69
     f48:	910093e2 	add	x2, sp, #0x24
     f4c:	9100b260 	add	x0, x19, #0x2c
     f50:	d2800083 	mov	x3, #0x4                   	// #4
     f54:	d2800401 	mov	x1, #0x20                  	// #32
     f58:	97fffcfb 	bl	344 <decrypt_bytes>
/home/zhaoxuyang/hedb/src/enclave/trustzone/../enc_int_ops.c:70
     f5c:	350000e0 	cbnz	w0, f78 <enc_int32_cmp+0x6c>
/home/zhaoxuyang/hedb/src/enclave/trustzone/../enc_int_ops.c:73
     f60:	29440be3 	ldp	w3, w2, [sp, #32]
     f64:	52800021 	mov	w1, #0x1                   	// #1
     f68:	6b02007f 	cmp	w3, w2
     f6c:	5a81a421 	cneg	w1, w1, lt  // lt = tstop
     f70:	1a9f1021 	csel	w1, w1, wzr, ne  // ne = any
     f74:	b9004e61 	str	w1, [x19, #76]
/home/zhaoxuyang/hedb/src/enclave/trustzone/../enc_int_ops.c:76
     f78:	b00000a1 	adrp	x1, 15000 <_DYNAMIC>
     f7c:	f9409c21 	ldr	x1, [x1, #312]
     f80:	f94017e2 	ldr	x2, [sp, #40]
     f84:	f9400023 	ldr	x3, [x1]
     f88:	eb030042 	subs	x2, x2, x3
     f8c:	d2800003 	mov	x3, #0x0                   	// #0
     f90:	54000040 	b.eq	f98 <enc_int32_cmp+0x8c>  // b.none
     f94:	940001bc 	bl	1684 <__stack_chk_fail>
     f98:	f9400bf3 	ldr	x19, [sp, #16]
     f9c:	a8c37bfd 	ldp	x29, x30, [sp], #48
     fa0:	d65f03c0 	ret

0000000000000fa4 <enc_int32_bulk>:
enc_int32_bulk():
/home/zhaoxuyang/hedb/src/enclave/trustzone/../enc_int_ops.c:78
     fa4:	a9bb7bfd 	stp	x29, x30, [sp, #-80]!
     fa8:	b00000a1 	adrp	x1, 15000 <_DYNAMIC>
     fac:	910003fd 	mov	x29, sp
     fb0:	f9409c21 	ldr	x1, [x1, #312]
     fb4:	a90153f3 	stp	x19, x20, [sp, #16]
     fb8:	aa0003f3 	mov	x19, x0
     fbc:	f9400020 	ldr	x0, [x1]
     fc0:	f90027e0 	str	x0, [sp, #72]
     fc4:	d2800000 	mov	x0, #0x0                   	// #0
     fc8:	a9025bf5 	stp	x21, x22, [sp, #32]
     fcc:	91004275 	add	x21, x19, #0x10
/home/zhaoxuyang/hedb/src/enclave/trustzone/../enc_int_ops.c:79
     fd0:	b9400e76 	ldr	w22, [x19, #12]
/home/zhaoxuyang/hedb/src/enclave/trustzone/../enc_int_ops.c:82
     fd4:	52800014 	mov	w20, #0x0                   	// #0
/home/zhaoxuyang/hedb/src/enclave/trustzone/../enc_int_ops.c:78
     fd8:	f9001bf7 	str	x23, [sp, #48]
/home/zhaoxuyang/hedb/src/enclave/trustzone/../enc_int_ops.c:85
     fdc:	910113f7 	add	x23, sp, #0x44
/home/zhaoxuyang/hedb/src/enclave/trustzone/../enc_int_ops.c:81
     fe0:	29087fff 	stp	wzr, wzr, [sp, #64]
/home/zhaoxuyang/hedb/src/enclave/trustzone/../enc_int_ops.c:83
     fe4:	6b16029f 	cmp	w20, w22
     fe8:	540001eb 	b.lt	1024 <enc_int32_bulk+0x80>  // b.tstop
/home/zhaoxuyang/hedb/src/enclave/trustzone/../enc_int_ops.c:100
     fec:	d2840200 	mov	x0, #0x2010                	// #8208
     ff0:	d2800403 	mov	x3, #0x20                  	// #32
     ff4:	8b000262 	add	x2, x19, x0
     ff8:	d2800081 	mov	x1, #0x4                   	// #4
     ffc:	910103e0 	add	x0, sp, #0x40
    1000:	97fffd17 	bl	45c <encrypt_bytes>
/home/zhaoxuyang/hedb/src/enclave/trustzone/../enc_int_ops.c:102
    1004:	900000a1 	adrp	x1, 15000 <_DYNAMIC>
    1008:	f9409c21 	ldr	x1, [x1, #312]
    100c:	f94027e2 	ldr	x2, [sp, #72]
    1010:	f9400023 	ldr	x3, [x1]
    1014:	eb030042 	subs	x2, x2, x3
    1018:	d2800003 	mov	x3, #0x0                   	// #0
    101c:	54000220 	b.eq	1060 <enc_int32_bulk+0xbc>  // b.none
    1020:	94000199 	bl	1684 <__stack_chk_fail>
/home/zhaoxuyang/hedb/src/enclave/trustzone/../enc_int_ops.c:85
    1024:	aa1703e2 	mov	x2, x23
    1028:	aa1503e0 	mov	x0, x21
    102c:	d2800083 	mov	x3, #0x4                   	// #4
    1030:	d2800401 	mov	x1, #0x20                  	// #32
    1034:	97fffcc4 	bl	344 <decrypt_bytes>
/home/zhaoxuyang/hedb/src/enclave/trustzone/../enc_int_ops.c:86
    1038:	35fffe60 	cbnz	w0, 1004 <enc_int32_bulk+0x60>
/home/zhaoxuyang/hedb/src/enclave/trustzone/../enc_int_ops.c:89
    103c:	b9400660 	ldr	w0, [x19, #4]
    1040:	7100281f 	cmp	w0, #0xa
    1044:	54000081 	b.ne	1054 <enc_int32_bulk+0xb0>  // b.any
/home/zhaoxuyang/hedb/src/enclave/trustzone/../enc_int_ops.c:92
    1048:	294807e0 	ldp	w0, w1, [sp, #64]
    104c:	0b010000 	add	w0, w0, w1
    1050:	b90043e0 	str	w0, [sp, #64]
/home/zhaoxuyang/hedb/src/enclave/trustzone/../enc_int_ops.c:97
    1054:	11000694 	add	w20, w20, #0x1
    1058:	910082b5 	add	x21, x21, #0x20
    105c:	17ffffe2 	b	fe4 <enc_int32_bulk+0x40>
/home/zhaoxuyang/hedb/src/enclave/trustzone/../enc_int_ops.c:102
    1060:	a94153f3 	ldp	x19, x20, [sp, #16]
    1064:	a9425bf5 	ldp	x21, x22, [sp, #32]
    1068:	f9401bf7 	ldr	x23, [sp, #48]
    106c:	a8c57bfd 	ldp	x29, x30, [sp], #80
    1070:	d65f03c0 	ret

0000000000001074 <handle_ops>:
handle_ops():
/home/zhaoxuyang/hedb/src/enclave/trustzone/../enc_ops.c:4
    1074:	a9be7bfd 	stp	x29, x30, [sp, #-32]!
    1078:	910003fd 	mov	x29, sp
/home/zhaoxuyang/hedb/src/enclave/trustzone/../enc_ops.c:6
    107c:	b9400401 	ldr	w1, [x0, #4]
/home/zhaoxuyang/hedb/src/enclave/trustzone/../enc_ops.c:4
    1080:	f9000bf3 	str	x19, [sp, #16]
    1084:	aa0003f3 	mov	x19, x0
/home/zhaoxuyang/hedb/src/enclave/trustzone/../enc_ops.c:6
    1088:	7101b83f 	cmp	w1, #0x6e
    108c:	5400044c 	b.gt	1114 <handle_ops+0xa0>
    1090:	7101903f 	cmp	w1, #0x64
    1094:	5400022c 	b.gt	10d8 <handle_ops+0x64>
    1098:	51000421 	sub	w1, w1, #0x1
    109c:	7100243f 	cmp	w1, #0x9
    10a0:	540002e9 	b.ls	10fc <handle_ops+0x88>  // b.plast
/home/zhaoxuyang/hedb/src/enclave/trustzone/../enc_ops.c:120
    10a4:	52800000 	mov	w0, #0x0                   	// #0
    10a8:	f9400bf3 	ldr	x19, [sp, #16]
    10ac:	a8c27bfd 	ldp	x29, x30, [sp], #32
    10b0:	d65f03c0 	ret
    10b4:	51032821 	sub	w1, w1, #0xca
    10b8:	7100103f 	cmp	w1, #0x4
    10bc:	54000a68 	b.hi	1208 <handle_ops+0x194>  // b.pmore
    10c0:	b0000080 	adrp	x0, 12000 <iv_test_data+0x98>
    10c4:	9114b000 	add	x0, x0, #0x52c
    10c8:	38614800 	ldrb	w0, [x0, w1, uxtw]
    10cc:	10000061 	adr	x1, 10d8 <handle_ops+0x64>
    10d0:	8b208820 	add	x0, x1, w0, sxtb #2
    10d4:	d61f0000 	br	x0
    10d8:	5101a421 	sub	w1, w1, #0x69
    10dc:	7100143f 	cmp	w1, #0x5
    10e0:	54000468 	b.hi	116c <handle_ops+0xf8>  // b.pmore
    10e4:	b0000080 	adrp	x0, 12000 <iv_test_data+0x98>
    10e8:	9114d000 	add	x0, x0, #0x534
    10ec:	38614800 	ldrb	w0, [x0, w1, uxtw]
    10f0:	10000061 	adr	x1, 10fc <handle_ops+0x88>
    10f4:	8b208820 	add	x0, x1, w0, sxtb #2
    10f8:	d61f0000 	br	x0
    10fc:	b0000080 	adrp	x0, 12000 <iv_test_data+0x98>
    1100:	9114f000 	add	x0, x0, #0x53c
    1104:	38614800 	ldrb	w0, [x0, w1, uxtw]
    1108:	10000061 	adr	x1, 1114 <handle_ops+0xa0>
    110c:	8b208820 	add	x0, x1, w0, sxtb #2
    1110:	d61f0000 	br	x0
/home/zhaoxuyang/hedb/src/enclave/trustzone/../enc_ops.c:6
    1114:	7103383f 	cmp	w1, #0xce
    1118:	54fffc6c 	b.gt	10a4 <handle_ops+0x30>
    111c:	7103203f 	cmp	w1, #0xc8
    1120:	54fffcac 	b.gt	10b4 <handle_ops+0x40>
    1124:	71025c3f 	cmp	w1, #0x97
    1128:	540004c0 	b.eq	11c0 <handle_ops+0x14c>  // b.none
    112c:	7102603f 	cmp	w1, #0x98
    1130:	54000520 	b.eq	11d4 <handle_ops+0x160>  // b.none
    1134:	7102583f 	cmp	w1, #0x96
    1138:	54fffb61 	b.ne	10a4 <handle_ops+0x30>  // b.any
/home/zhaoxuyang/hedb/src/enclave/trustzone/../enc_ops.c:71
    113c:	97fffef0 	bl	cfc <enc_timestamp_cmp>
    1140:	14000003 	b	114c <handle_ops+0xd8>
/home/zhaoxuyang/hedb/src/enclave/trustzone/../enc_ops.c:14
    1144:	aa1303e0 	mov	x0, x19
    1148:	97ffff2d 	bl	dfc <enc_int32_calc>
/home/zhaoxuyang/hedb/src/enclave/trustzone/../enc_ops.c:111
    114c:	b9000a60 	str	w0, [x19, #8]
/home/zhaoxuyang/hedb/src/enclave/trustzone/../enc_ops.c:113
    1150:	17ffffd5 	b	10a4 <handle_ops+0x30>
/home/zhaoxuyang/hedb/src/enclave/trustzone/../enc_ops.c:17
    1154:	aa1303e0 	mov	x0, x19
    1158:	97ffff6d 	bl	f0c <enc_int32_cmp>
    115c:	17fffffc 	b	114c <handle_ops+0xd8>
/home/zhaoxuyang/hedb/src/enclave/trustzone/../enc_ops.c:20
    1160:	aa1303e0 	mov	x0, x19
    1164:	97ffff90 	bl	fa4 <enc_int32_bulk>
    1168:	17fffff9 	b	114c <handle_ops+0xd8>
/home/zhaoxuyang/hedb/src/enclave/trustzone/../enc_ops.c:44
    116c:	aa1303e0 	mov	x0, x19
    1170:	97fffe65 	bl	b04 <enc_float32_calc>
    1174:	17fffff6 	b	114c <handle_ops+0xd8>
/home/zhaoxuyang/hedb/src/enclave/trustzone/../enc_ops.c:49
    1178:	aa1303e0 	mov	x0, x19
    117c:	97fffe39 	bl	a60 <enc_float32_cmp>
    1180:	17fffff3 	b	114c <handle_ops+0xd8>
/home/zhaoxuyang/hedb/src/enclave/trustzone/../enc_ops.c:53
    1184:	aa1303e0 	mov	x0, x19
    1188:	97fffea9 	bl	c2c <enc_float32_bulk>
    118c:	17fffff0 	b	114c <handle_ops+0xd8>
/home/zhaoxuyang/hedb/src/enclave/trustzone/../enc_ops.c:58
    1190:	91004262 	add	x2, x19, #0x10
    1194:	91003260 	add	x0, x19, #0xc
    1198:	d2800403 	mov	x3, #0x20                  	// #32
    119c:	d2800081 	mov	x1, #0x4                   	// #4
/home/zhaoxuyang/hedb/src/enclave/trustzone/../enc_ops.c:104
    11a0:	97fffcaf 	bl	45c <encrypt_bytes>
    11a4:	17ffffea 	b	114c <handle_ops+0xd8>
/home/zhaoxuyang/hedb/src/enclave/trustzone/../enc_ops.c:64
    11a8:	9100b262 	add	x2, x19, #0x2c
    11ac:	d2800083 	mov	x3, #0x4                   	// #4
    11b0:	d2800401 	mov	x1, #0x20                  	// #32
/home/zhaoxuyang/hedb/src/enclave/trustzone/../enc_ops.c:81
    11b4:	91003260 	add	x0, x19, #0xc
/home/zhaoxuyang/hedb/src/enclave/trustzone/../enc_ops.c:111
    11b8:	97fffc63 	bl	344 <decrypt_bytes>
    11bc:	17ffffe4 	b	114c <handle_ops+0xd8>
/home/zhaoxuyang/hedb/src/enclave/trustzone/../enc_ops.c:75
    11c0:	91006002 	add	x2, x0, #0x18
    11c4:	d2800483 	mov	x3, #0x24                  	// #36
    11c8:	d2800101 	mov	x1, #0x8                   	// #8
/home/zhaoxuyang/hedb/src/enclave/trustzone/../enc_ops.c:104
    11cc:	91004260 	add	x0, x19, #0x10
    11d0:	17fffff4 	b	11a0 <handle_ops+0x12c>
/home/zhaoxuyang/hedb/src/enclave/trustzone/../enc_ops.c:81
    11d4:	9100c002 	add	x2, x0, #0x30
    11d8:	d2800103 	mov	x3, #0x8                   	// #8
    11dc:	d2800481 	mov	x1, #0x24                  	// #36
    11e0:	17fffff5 	b	11b4 <handle_ops+0x140>
/home/zhaoxuyang/hedb/src/enclave/trustzone/../enc_ops.c:89
    11e4:	aa1303e0 	mov	x0, x19
    11e8:	940000e2 	bl	1570 <enc_text_substring>
    11ec:	17ffffd8 	b	114c <handle_ops+0xd8>
/home/zhaoxuyang/hedb/src/enclave/trustzone/../enc_ops.c:93
    11f0:	aa1303e0 	mov	x0, x19
    11f4:	940000a2 	bl	147c <enc_text_concatenate>
    11f8:	17ffffd5 	b	114c <handle_ops+0xd8>
/home/zhaoxuyang/hedb/src/enclave/trustzone/../enc_ops.c:96
    11fc:	aa1303e0 	mov	x0, x19
    1200:	94000054 	bl	1350 <enc_text_like>
    1204:	17ffffd2 	b	114c <handle_ops+0xd8>
/home/zhaoxuyang/hedb/src/enclave/trustzone/../enc_ops.c:99
    1208:	9400001b 	bl	1274 <enc_text_cmp>
    120c:	17ffffd0 	b	114c <handle_ops+0xd8>
/home/zhaoxuyang/hedb/src/enclave/trustzone/../enc_ops.c:103
    1210:	b9400e61 	ldr	w1, [x19, #12]
/home/zhaoxuyang/hedb/src/enclave/trustzone/../enc_ops.c:104
    1214:	91105262 	add	x2, x19, #0x414
/home/zhaoxuyang/hedb/src/enclave/trustzone/../enc_ops.c:103
    1218:	11007023 	add	w3, w1, #0x1c
/home/zhaoxuyang/hedb/src/enclave/trustzone/../enc_ops.c:104
    121c:	2a0103e1 	mov	w1, w1
/home/zhaoxuyang/hedb/src/enclave/trustzone/../enc_ops.c:103
    1220:	b9041263 	str	w3, [x19, #1040]
/home/zhaoxuyang/hedb/src/enclave/trustzone/../enc_ops.c:104
    1224:	17ffffea 	b	11cc <handle_ops+0x158>
/home/zhaoxuyang/hedb/src/enclave/trustzone/../enc_ops.c:110
    1228:	b9400e61 	ldr	w1, [x19, #12]
/home/zhaoxuyang/hedb/src/enclave/trustzone/../enc_ops.c:111
    122c:	9110c262 	add	x2, x19, #0x430
    1230:	91004260 	add	x0, x19, #0x10
/home/zhaoxuyang/hedb/src/enclave/trustzone/../enc_ops.c:110
    1234:	51007023 	sub	w3, w1, #0x1c
/home/zhaoxuyang/hedb/src/enclave/trustzone/../enc_ops.c:111
    1238:	2a0103e1 	mov	w1, w1
/home/zhaoxuyang/hedb/src/enclave/trustzone/../enc_ops.c:110
    123c:	b9042e63 	str	w3, [x19, #1068]
/home/zhaoxuyang/hedb/src/enclave/trustzone/../enc_ops.c:111
    1240:	17ffffde 	b	11b8 <handle_ops+0x144>

0000000000001244 <SubText>:
SubText():
/home/zhaoxuyang/hedb/src/enclave/trustzone/../enc_text_ops.c:35
    1244:	4b020063 	sub	w3, w3, w2
/home/zhaoxuyang/hedb/src/enclave/trustzone/../enc_text_ops.c:37
    1248:	93407c42 	sxtw	x2, w2
    124c:	d1000442 	sub	x2, x2, #0x1
/home/zhaoxuyang/hedb/src/enclave/trustzone/../enc_text_ops.c:35
    1250:	d2800004 	mov	x4, #0x0                   	// #0
/home/zhaoxuyang/hedb/src/enclave/trustzone/../enc_text_ops.c:37
    1254:	8b020022 	add	x2, x1, x2
/home/zhaoxuyang/hedb/src/enclave/trustzone/../enc_text_ops.c:35 (discriminator 1)
    1258:	6b04007f 	cmp	w3, w4
    125c:	5400004a 	b.ge	1264 <SubText+0x20>  // b.tcont
/home/zhaoxuyang/hedb/src/enclave/trustzone/../enc_text_ops.c:39
    1260:	d65f03c0 	ret
/home/zhaoxuyang/hedb/src/enclave/trustzone/../enc_text_ops.c:37 (discriminator 3)
    1264:	38646841 	ldrb	w1, [x2, x4]
    1268:	38246801 	strb	w1, [x0, x4]
/home/zhaoxuyang/hedb/src/enclave/trustzone/../enc_text_ops.c:35 (discriminator 3)
    126c:	91000484 	add	x4, x4, #0x1
    1270:	17fffffa 	b	1258 <SubText+0x14>

0000000000001274 <enc_text_cmp>:
enc_text_cmp():
/home/zhaoxuyang/hedb/src/enclave/trustzone/../enc_text_ops.c:41
    1274:	d12143ff 	sub	sp, sp, #0x850
    1278:	900000a1 	adrp	x1, 15000 <_DYNAMIC>
    127c:	a9007bfd 	stp	x29, x30, [sp]
    1280:	910003fd 	mov	x29, sp
    1284:	f9409c21 	ldr	x1, [x1, #312]
    1288:	a90153f3 	stp	x19, x20, [sp, #16]
    128c:	aa0003f4 	mov	x20, x0
    1290:	f9400020 	ldr	x0, [x1]
    1294:	f90427e0 	str	x0, [sp, #2120]
    1298:	d2800000 	mov	x0, #0x0                   	// #0
    129c:	a9025bf5 	stp	x21, x22, [sp, #32]
/home/zhaoxuyang/hedb/src/enclave/trustzone/../enc_text_ops.c:45
    12a0:	9100f3f5 	add	x21, sp, #0x3c
/home/zhaoxuyang/hedb/src/enclave/trustzone/../enc_text_ops.c:44
    12a4:	b9400e81 	ldr	w1, [x20, #12]
/home/zhaoxuyang/hedb/src/enclave/trustzone/../enc_text_ops.c:45
    12a8:	aa1503e2 	mov	x2, x21
    12ac:	91004280 	add	x0, x20, #0x10
/home/zhaoxuyang/hedb/src/enclave/trustzone/../enc_text_ops.c:44
    12b0:	51007023 	sub	w3, w1, #0x1c
/home/zhaoxuyang/hedb/src/enclave/trustzone/../enc_text_ops.c:45
    12b4:	2a0103e1 	mov	w1, w1
/home/zhaoxuyang/hedb/src/enclave/trustzone/../enc_text_ops.c:44
    12b8:	b9003be3 	str	w3, [sp, #56]
/home/zhaoxuyang/hedb/src/enclave/trustzone/../enc_text_ops.c:45
    12bc:	97fffc22 	bl	344 <decrypt_bytes>
    12c0:	2a0003f3 	mov	w19, w0
/home/zhaoxuyang/hedb/src/enclave/trustzone/../enc_text_ops.c:46
    12c4:	350002a0 	cbnz	w0, 1318 <enc_text_cmp+0xa4>
/home/zhaoxuyang/hedb/src/enclave/trustzone/../enc_text_ops.c:48
    12c8:	b9403be0 	ldr	w0, [sp, #56]
    12cc:	9100f3e1 	add	x1, sp, #0x3c
/home/zhaoxuyang/hedb/src/enclave/trustzone/../enc_text_ops.c:51
    12d0:	911113f6 	add	x22, sp, #0x444
    12d4:	aa1603e2 	mov	x2, x22
/home/zhaoxuyang/hedb/src/enclave/trustzone/../enc_text_ops.c:48
    12d8:	3820683f 	strb	wzr, [x1, x0]
/home/zhaoxuyang/hedb/src/enclave/trustzone/../enc_text_ops.c:51
    12dc:	9110c280 	add	x0, x20, #0x430
/home/zhaoxuyang/hedb/src/enclave/trustzone/../enc_text_ops.c:50
    12e0:	b9442e81 	ldr	w1, [x20, #1068]
    12e4:	51007023 	sub	w3, w1, #0x1c
/home/zhaoxuyang/hedb/src/enclave/trustzone/../enc_text_ops.c:51
    12e8:	2a0103e1 	mov	w1, w1
/home/zhaoxuyang/hedb/src/enclave/trustzone/../enc_text_ops.c:50
    12ec:	b90443e3 	str	w3, [sp, #1088]
/home/zhaoxuyang/hedb/src/enclave/trustzone/../enc_text_ops.c:51
    12f0:	97fffc15 	bl	344 <decrypt_bytes>
    12f4:	2a0003f3 	mov	w19, w0
/home/zhaoxuyang/hedb/src/enclave/trustzone/../enc_text_ops.c:52
    12f8:	35000100 	cbnz	w0, 1318 <enc_text_cmp+0xa4>
/home/zhaoxuyang/hedb/src/enclave/trustzone/../enc_text_ops.c:54
    12fc:	b94443e0 	ldr	w0, [sp, #1088]
    1300:	911113e1 	add	x1, sp, #0x444
    1304:	3820683f 	strb	wzr, [x1, x0]
/home/zhaoxuyang/hedb/src/enclave/trustzone/../enc_text_ops.c:56
    1308:	aa1603e1 	mov	x1, x22
    130c:	aa1503e0 	mov	x0, x21
    1310:	940000de 	bl	1688 <strcmp>
    1314:	b9084e80 	str	w0, [x20, #2124]
/home/zhaoxuyang/hedb/src/enclave/trustzone/../enc_text_ops.c:60
    1318:	900000a1 	adrp	x1, 15000 <_DYNAMIC>
    131c:	f9409c21 	ldr	x1, [x1, #312]
    1320:	f94427e0 	ldr	x0, [sp, #2120]
    1324:	f9400022 	ldr	x2, [x1]
    1328:	eb020000 	subs	x0, x0, x2
    132c:	d2800002 	mov	x2, #0x0                   	// #0
    1330:	54000040 	b.eq	1338 <enc_text_cmp+0xc4>  // b.none
    1334:	940000d4 	bl	1684 <__stack_chk_fail>
    1338:	2a1303e0 	mov	w0, w19
    133c:	a9407bfd 	ldp	x29, x30, [sp]
    1340:	a94153f3 	ldp	x19, x20, [sp, #16]
    1344:	a9425bf5 	ldp	x21, x22, [sp, #32]
    1348:	912143ff 	add	sp, sp, #0x850
    134c:	d65f03c0 	ret

0000000000001350 <enc_text_like>:
enc_text_like():
/home/zhaoxuyang/hedb/src/enclave/trustzone/../enc_text_ops.c:61
    1350:	d12183ff 	sub	sp, sp, #0x860
    1354:	900000a1 	adrp	x1, 15000 <_DYNAMIC>
/home/zhaoxuyang/hedb/src/enclave/trustzone/../enc_text_ops.c:66
    1358:	910133e2 	add	x2, sp, #0x4c
/home/zhaoxuyang/hedb/src/enclave/trustzone/../enc_text_ops.c:61
    135c:	a9007bfd 	stp	x29, x30, [sp]
    1360:	910003fd 	mov	x29, sp
    1364:	f9409c21 	ldr	x1, [x1, #312]
    1368:	a90153f3 	stp	x19, x20, [sp, #16]
    136c:	aa0003f4 	mov	x20, x0
    1370:	f9400020 	ldr	x0, [x1]
    1374:	f9042fe0 	str	x0, [sp, #2136]
    1378:	d2800000 	mov	x0, #0x0                   	// #0
    137c:	a9025bf5 	stp	x21, x22, [sp, #32]
/home/zhaoxuyang/hedb/src/enclave/trustzone/../enc_text_ops.c:66
    1380:	91004280 	add	x0, x20, #0x10
/home/zhaoxuyang/hedb/src/enclave/trustzone/../enc_text_ops.c:65
    1384:	b9400e81 	ldr	w1, [x20, #12]
/home/zhaoxuyang/hedb/src/enclave/trustzone/../enc_text_ops.c:61
    1388:	f9001bf7 	str	x23, [sp, #48]
/home/zhaoxuyang/hedb/src/enclave/trustzone/../enc_text_ops.c:65
    138c:	51007023 	sub	w3, w1, #0x1c
/home/zhaoxuyang/hedb/src/enclave/trustzone/../enc_text_ops.c:66
    1390:	2a0103e1 	mov	w1, w1
/home/zhaoxuyang/hedb/src/enclave/trustzone/../enc_text_ops.c:65
    1394:	b9004be3 	str	w3, [sp, #72]
/home/zhaoxuyang/hedb/src/enclave/trustzone/../enc_text_ops.c:66
    1398:	97fffbeb 	bl	344 <decrypt_bytes>
    139c:	2a0003f3 	mov	w19, w0
/home/zhaoxuyang/hedb/src/enclave/trustzone/../enc_text_ops.c:67
    13a0:	350003a0 	cbnz	w0, 1414 <enc_text_like+0xc4>
/home/zhaoxuyang/hedb/src/enclave/trustzone/../enc_text_ops.c:69
    13a4:	b9404be0 	ldr	w0, [sp, #72]
    13a8:	910133f7 	add	x23, sp, #0x4c
/home/zhaoxuyang/hedb/src/enclave/trustzone/../enc_text_ops.c:71
    13ac:	b9442e81 	ldr	w1, [x20, #1068]
/home/zhaoxuyang/hedb/src/enclave/trustzone/../enc_text_ops.c:72
    13b0:	911143f6 	add	x22, sp, #0x450
    13b4:	910012c2 	add	x2, x22, #0x4
/home/zhaoxuyang/hedb/src/enclave/trustzone/../enc_text_ops.c:71
    13b8:	51007023 	sub	w3, w1, #0x1c
/home/zhaoxuyang/hedb/src/enclave/trustzone/../enc_text_ops.c:72
    13bc:	2a0103e1 	mov	w1, w1
/home/zhaoxuyang/hedb/src/enclave/trustzone/../enc_text_ops.c:69
    13c0:	38206aff 	strb	wzr, [x23, x0]
/home/zhaoxuyang/hedb/src/enclave/trustzone/../enc_text_ops.c:72
    13c4:	9110c280 	add	x0, x20, #0x430
/home/zhaoxuyang/hedb/src/enclave/trustzone/../enc_text_ops.c:71
    13c8:	b90453e3 	str	w3, [sp, #1104]
/home/zhaoxuyang/hedb/src/enclave/trustzone/../enc_text_ops.c:72
    13cc:	97fffbde 	bl	344 <decrypt_bytes>
    13d0:	2a0003f3 	mov	w19, w0
/home/zhaoxuyang/hedb/src/enclave/trustzone/../enc_text_ops.c:73
    13d4:	35000200 	cbnz	w0, 1414 <enc_text_like+0xc4>
/home/zhaoxuyang/hedb/src/enclave/trustzone/../enc_text_ops.c:75
    13d8:	b94453e2 	ldr	w2, [sp, #1104]
    13dc:	911153e3 	add	x3, sp, #0x454
/home/zhaoxuyang/hedb/src/enclave/trustzone/../enc_text_ops.c:77
    13e0:	b9404be4 	ldr	w4, [sp, #72]
MatchText():
/home/zhaoxuyang/hedb/src/enclave/trustzone/../enc_text_ops.c:11
    13e4:	52800000 	mov	w0, #0x0                   	// #0
/home/zhaoxuyang/hedb/src/enclave/trustzone/../enc_text_ops.c:10
    13e8:	52800001 	mov	w1, #0x0                   	// #0
enc_text_like():
/home/zhaoxuyang/hedb/src/enclave/trustzone/../enc_text_ops.c:75
    13ec:	3822487f 	strb	wzr, [x3, w2, uxtw]
MatchText():
/home/zhaoxuyang/hedb/src/enclave/trustzone/../enc_text_ops.c:12
    13f0:	6b01009f 	cmp	w4, w1
    13f4:	93407c15 	sxtw	x21, w0
    13f8:	7a40c044 	ccmp	w2, w0, #0x4, gt
    13fc:	540001cc 	b.gt	1434 <enc_text_like+0xe4>
/home/zhaoxuyang/hedb/src/enclave/trustzone/../enc_text_ops.c:25
    1400:	910012c0 	add	x0, x22, #0x4
    1404:	940000aa 	bl	16ac <strlen>
    1408:	eb15001f 	cmp	x0, x21
    140c:	1a9f17e0 	cset	w0, eq  // eq = none
enc_text_like():
/home/zhaoxuyang/hedb/src/enclave/trustzone/../enc_text_ops.c:77
    1410:	b9084e80 	str	w0, [x20, #2124]
/home/zhaoxuyang/hedb/src/enclave/trustzone/../enc_text_ops.c:80
    1414:	900000a1 	adrp	x1, 15000 <_DYNAMIC>
    1418:	f9409c21 	ldr	x1, [x1, #312]
    141c:	f9442fe0 	ldr	x0, [sp, #2136]
    1420:	f9400022 	ldr	x2, [x1]
    1424:	eb020000 	subs	x0, x0, x2
    1428:	d2800002 	mov	x2, #0x0                   	// #0
    142c:	540001a0 	b.eq	1460 <enc_text_like+0x110>  // b.none
    1430:	94000095 	bl	1684 <__stack_chk_fail>
MatchText():
/home/zhaoxuyang/hedb/src/enclave/trustzone/../enc_text_ops.c:14
    1434:	3861cae6 	ldrb	w6, [x23, w1, sxtw]
    1438:	38756865 	ldrb	w5, [x3, x21]
    143c:	6b0500df 	cmp	w6, w5
    1440:	54000081 	b.ne	1450 <enc_text_like+0x100>  // b.any
/home/zhaoxuyang/hedb/src/enclave/trustzone/../enc_text_ops.c:16
    1444:	11000421 	add	w1, w1, #0x1
/home/zhaoxuyang/hedb/src/enclave/trustzone/../enc_text_ops.c:17
    1448:	11000400 	add	w0, w0, #0x1
    144c:	17ffffe9 	b	13f0 <enc_text_like+0xa0>
/home/zhaoxuyang/hedb/src/enclave/trustzone/../enc_text_ops.c:21
    1450:	4b000021 	sub	w1, w1, w0
/home/zhaoxuyang/hedb/src/enclave/trustzone/../enc_text_ops.c:22
    1454:	52800000 	mov	w0, #0x0                   	// #0
/home/zhaoxuyang/hedb/src/enclave/trustzone/../enc_text_ops.c:21
    1458:	11000421 	add	w1, w1, #0x1
/home/zhaoxuyang/hedb/src/enclave/trustzone/../enc_text_ops.c:22
    145c:	17ffffe5 	b	13f0 <enc_text_like+0xa0>
enc_text_like():
/home/zhaoxuyang/hedb/src/enclave/trustzone/../enc_text_ops.c:80
    1460:	2a1303e0 	mov	w0, w19
    1464:	a9407bfd 	ldp	x29, x30, [sp]
    1468:	a94153f3 	ldp	x19, x20, [sp, #16]
    146c:	a9425bf5 	ldp	x21, x22, [sp, #32]
    1470:	f9401bf7 	ldr	x23, [sp, #48]
    1474:	912183ff 	add	sp, sp, #0x860
    1478:	d65f03c0 	ret

000000000000147c <enc_text_concatenate>:
enc_text_concatenate():
/home/zhaoxuyang/hedb/src/enclave/trustzone/../enc_text_ops.c:81
    147c:	d12143ff 	sub	sp, sp, #0x850
    1480:	900000a1 	adrp	x1, 15000 <_DYNAMIC>
    1484:	a9007bfd 	stp	x29, x30, [sp]
    1488:	910003fd 	mov	x29, sp
    148c:	f9409c21 	ldr	x1, [x1, #312]
    1490:	a90153f3 	stp	x19, x20, [sp, #16]
    1494:	aa0003f3 	mov	x19, x0
    1498:	f9400020 	ldr	x0, [x1]
    149c:	f90427e0 	str	x0, [sp, #2120]
    14a0:	d2800000 	mov	x0, #0x0                   	// #0
    14a4:	a9025bf5 	stp	x21, x22, [sp, #32]
/home/zhaoxuyang/hedb/src/enclave/trustzone/../enc_text_ops.c:86
    14a8:	9100f3f5 	add	x21, sp, #0x3c
/home/zhaoxuyang/hedb/src/enclave/trustzone/../enc_text_ops.c:85
    14ac:	b9401261 	ldr	w1, [x19, #16]
/home/zhaoxuyang/hedb/src/enclave/trustzone/../enc_text_ops.c:86
    14b0:	aa1503e2 	mov	x2, x21
    14b4:	91005260 	add	x0, x19, #0x14
/home/zhaoxuyang/hedb/src/enclave/trustzone/../enc_text_ops.c:85
    14b8:	51007023 	sub	w3, w1, #0x1c
/home/zhaoxuyang/hedb/src/enclave/trustzone/../enc_text_ops.c:86
    14bc:	2a0103e1 	mov	w1, w1
/home/zhaoxuyang/hedb/src/enclave/trustzone/../enc_text_ops.c:85
    14c0:	b9003be3 	str	w3, [sp, #56]
/home/zhaoxuyang/hedb/src/enclave/trustzone/../enc_text_ops.c:86
    14c4:	97fffba0 	bl	344 <decrypt_bytes>
/home/zhaoxuyang/hedb/src/enclave/trustzone/../enc_text_ops.c:87
    14c8:	350003a0 	cbnz	w0, 153c <enc_text_concatenate+0xc0>
/home/zhaoxuyang/hedb/src/enclave/trustzone/../enc_text_ops.c:89
    14cc:	b9403be0 	ldr	w0, [sp, #56]
    14d0:	9100f3e1 	add	x1, sp, #0x3c
/home/zhaoxuyang/hedb/src/enclave/trustzone/../enc_text_ops.c:92
    14d4:	911113f6 	add	x22, sp, #0x444
    14d8:	aa1603e2 	mov	x2, x22
/home/zhaoxuyang/hedb/src/enclave/trustzone/../enc_text_ops.c:89
    14dc:	3820683f 	strb	wzr, [x1, x0]
/home/zhaoxuyang/hedb/src/enclave/trustzone/../enc_text_ops.c:92
    14e0:	9110d260 	add	x0, x19, #0x434
/home/zhaoxuyang/hedb/src/enclave/trustzone/../enc_text_ops.c:91
    14e4:	b9443261 	ldr	w1, [x19, #1072]
    14e8:	51007023 	sub	w3, w1, #0x1c
/home/zhaoxuyang/hedb/src/enclave/trustzone/../enc_text_ops.c:92
    14ec:	2a0103e1 	mov	w1, w1
/home/zhaoxuyang/hedb/src/enclave/trustzone/../enc_text_ops.c:91
    14f0:	b90443e3 	str	w3, [sp, #1088]
/home/zhaoxuyang/hedb/src/enclave/trustzone/../enc_text_ops.c:92
    14f4:	97fffb94 	bl	344 <decrypt_bytes>
/home/zhaoxuyang/hedb/src/enclave/trustzone/../enc_text_ops.c:93
    14f8:	35000220 	cbnz	w0, 153c <enc_text_concatenate+0xc0>
/home/zhaoxuyang/hedb/src/enclave/trustzone/../enc_text_ops.c:95
    14fc:	b94443f4 	ldr	w20, [sp, #1088]
    1500:	911113e0 	add	x0, sp, #0x444
/home/zhaoxuyang/hedb/src/enclave/trustzone/../enc_text_ops.c:97
    1504:	aa1603e1 	mov	x1, x22
/home/zhaoxuyang/hedb/src/enclave/trustzone/../enc_text_ops.c:95
    1508:	2a1403e2 	mov	w2, w20
    150c:	3822681f 	strb	wzr, [x0, x2]
/home/zhaoxuyang/hedb/src/enclave/trustzone/../enc_text_ops.c:97
    1510:	b9403be0 	ldr	w0, [sp, #56]
    1514:	8b0002a0 	add	x0, x21, x0
    1518:	97fffac2 	bl	20 <memcpy>
/home/zhaoxuyang/hedb/src/enclave/trustzone/../enc_text_ops.c:98
    151c:	b9403be1 	ldr	w1, [sp, #56]
/home/zhaoxuyang/hedb/src/enclave/trustzone/../enc_text_ops.c:101
    1520:	91215262 	add	x2, x19, #0x854
    1524:	aa1503e0 	mov	x0, x21
/home/zhaoxuyang/hedb/src/enclave/trustzone/../enc_text_ops.c:98
    1528:	0b010281 	add	w1, w20, w1
    152c:	b9003be1 	str	w1, [sp, #56]
/home/zhaoxuyang/hedb/src/enclave/trustzone/../enc_text_ops.c:100
    1530:	11007023 	add	w3, w1, #0x1c
    1534:	b9085263 	str	w3, [x19, #2128]
/home/zhaoxuyang/hedb/src/enclave/trustzone/../enc_text_ops.c:101
    1538:	97fffbc9 	bl	45c <encrypt_bytes>
/home/zhaoxuyang/hedb/src/enclave/trustzone/../enc_text_ops.c:104
    153c:	900000a1 	adrp	x1, 15000 <_DYNAMIC>
    1540:	f9409c21 	ldr	x1, [x1, #312]
    1544:	f94427e2 	ldr	x2, [sp, #2120]
    1548:	f9400023 	ldr	x3, [x1]
    154c:	eb030042 	subs	x2, x2, x3
    1550:	d2800003 	mov	x3, #0x0                   	// #0
    1554:	54000040 	b.eq	155c <enc_text_concatenate+0xe0>  // b.none
    1558:	9400004b 	bl	1684 <__stack_chk_fail>
    155c:	a9407bfd 	ldp	x29, x30, [sp]
    1560:	a94153f3 	ldp	x19, x20, [sp, #16]
    1564:	a9425bf5 	ldp	x21, x22, [sp, #32]
    1568:	912143ff 	add	sp, sp, #0x850
    156c:	d65f03c0 	ret

0000000000001570 <enc_text_substring>:
enc_text_substring():
/home/zhaoxuyang/hedb/src/enclave/trustzone/../enc_text_ops.c:105
    1570:	d12143ff 	sub	sp, sp, #0x850
    1574:	900000a1 	adrp	x1, 15000 <_DYNAMIC>
    1578:	a9007bfd 	stp	x29, x30, [sp]
    157c:	910003fd 	mov	x29, sp
    1580:	f9409c21 	ldr	x1, [x1, #312]
    1584:	a90153f3 	stp	x19, x20, [sp, #16]
    1588:	aa0003f3 	mov	x19, x0
    158c:	f9400020 	ldr	x0, [x1]
    1590:	f90427e0 	str	x0, [sp, #2120]
    1594:	d2800000 	mov	x0, #0x0                   	// #0
/home/zhaoxuyang/hedb/src/enclave/trustzone/../enc_text_ops.c:112
    1598:	91004260 	add	x0, x19, #0x10
/home/zhaoxuyang/hedb/src/enclave/trustzone/../enc_text_ops.c:111
    159c:	b9400e61 	ldr	w1, [x19, #12]
/home/zhaoxuyang/hedb/src/enclave/trustzone/../enc_text_ops.c:105
    15a0:	f90013f5 	str	x21, [sp, #32]
/home/zhaoxuyang/hedb/src/enclave/trustzone/../enc_text_ops.c:112
    15a4:	9100f3f5 	add	x21, sp, #0x3c
/home/zhaoxuyang/hedb/src/enclave/trustzone/../enc_text_ops.c:111
    15a8:	51007023 	sub	w3, w1, #0x1c
/home/zhaoxuyang/hedb/src/enclave/trustzone/../enc_text_ops.c:112
    15ac:	aa1503e2 	mov	x2, x21
    15b0:	2a0103e1 	mov	w1, w1
/home/zhaoxuyang/hedb/src/enclave/trustzone/../enc_text_ops.c:111
    15b4:	b9003be3 	str	w3, [sp, #56]
/home/zhaoxuyang/hedb/src/enclave/trustzone/../enc_text_ops.c:112
    15b8:	97fffb63 	bl	344 <decrypt_bytes>
/home/zhaoxuyang/hedb/src/enclave/trustzone/../enc_text_ops.c:113
    15bc:	350003c0 	cbnz	w0, 1634 <enc_text_substring+0xc4>
/home/zhaoxuyang/hedb/src/enclave/trustzone/../enc_text_ops.c:115
    15c0:	b9403be0 	ldr	w0, [sp, #56]
    15c4:	9100f3e1 	add	x1, sp, #0x3c
/home/zhaoxuyang/hedb/src/enclave/trustzone/../enc_text_ops.c:117
    15c8:	9100c3e2 	add	x2, sp, #0x30
    15cc:	d2800083 	mov	x3, #0x4                   	// #4
/home/zhaoxuyang/hedb/src/enclave/trustzone/../enc_text_ops.c:115
    15d0:	3820683f 	strb	wzr, [x1, x0]
/home/zhaoxuyang/hedb/src/enclave/trustzone/../enc_text_ops.c:117
    15d4:	9110b260 	add	x0, x19, #0x42c
    15d8:	d2800401 	mov	x1, #0x20                  	// #32
    15dc:	97fffb5a 	bl	344 <decrypt_bytes>
/home/zhaoxuyang/hedb/src/enclave/trustzone/../enc_text_ops.c:118
    15e0:	350002a0 	cbnz	w0, 1634 <enc_text_substring+0xc4>
/home/zhaoxuyang/hedb/src/enclave/trustzone/../enc_text_ops.c:121
    15e4:	9100d3e2 	add	x2, sp, #0x34
    15e8:	91113260 	add	x0, x19, #0x44c
    15ec:	d2800083 	mov	x3, #0x4                   	// #4
    15f0:	d2800401 	mov	x1, #0x20                  	// #32
    15f4:	97fffb54 	bl	344 <decrypt_bytes>
/home/zhaoxuyang/hedb/src/enclave/trustzone/../enc_text_ops.c:122
    15f8:	350001e0 	cbnz	w0, 1634 <enc_text_substring+0xc4>
/home/zhaoxuyang/hedb/src/enclave/trustzone/../enc_text_ops.c:125
    15fc:	29460fe2 	ldp	w2, w3, [sp, #48]
    1600:	911113f4 	add	x20, sp, #0x444
    1604:	aa1503e1 	mov	x1, x21
    1608:	aa1403e0 	mov	x0, x20
    160c:	97ffff0e 	bl	1244 <SubText>
/home/zhaoxuyang/hedb/src/enclave/trustzone/../enc_text_ops.c:126
    1610:	29460fe0 	ldp	w0, w3, [sp, #48]
/home/zhaoxuyang/hedb/src/enclave/trustzone/../enc_text_ops.c:129
    1614:	9111c262 	add	x2, x19, #0x470
/home/zhaoxuyang/hedb/src/enclave/trustzone/../enc_text_ops.c:126
    1618:	4b000063 	sub	w3, w3, w0
/home/zhaoxuyang/hedb/src/enclave/trustzone/../enc_text_ops.c:129
    161c:	aa1403e0 	mov	x0, x20
/home/zhaoxuyang/hedb/src/enclave/trustzone/../enc_text_ops.c:126
    1620:	11000461 	add	w1, w3, #0x1
/home/zhaoxuyang/hedb/src/enclave/trustzone/../enc_text_ops.c:128
    1624:	11007463 	add	w3, w3, #0x1d
    1628:	b9046e63 	str	w3, [x19, #1132]
/home/zhaoxuyang/hedb/src/enclave/trustzone/../enc_text_ops.c:126
    162c:	b90443e1 	str	w1, [sp, #1088]
/home/zhaoxuyang/hedb/src/enclave/trustzone/../enc_text_ops.c:129
    1630:	97fffb8b 	bl	45c <encrypt_bytes>
/home/zhaoxuyang/hedb/src/enclave/trustzone/../enc_text_ops.c:132
    1634:	900000a1 	adrp	x1, 15000 <_DYNAMIC>
    1638:	f9409c21 	ldr	x1, [x1, #312]
    163c:	f94427e2 	ldr	x2, [sp, #2120]
    1640:	f9400023 	ldr	x3, [x1]
    1644:	eb030042 	subs	x2, x2, x3
    1648:	d2800003 	mov	x3, #0x0                   	// #0
    164c:	54000040 	b.eq	1654 <enc_text_substring+0xe4>  // b.none
    1650:	9400000d 	bl	1684 <__stack_chk_fail>
    1654:	a9407bfd 	ldp	x29, x30, [sp]
    1658:	a94153f3 	ldp	x19, x20, [sp, #16]
    165c:	f94013f5 	ldr	x21, [sp, #32]
    1660:	912143ff 	add	sp, sp, #0x850
    1664:	d65f03c0 	ret

0000000000001668 <__ta_entry>:
__ta_entry():
/home/zhaoxuyang/enc-db/ta_dev_kit/src/user_ta_header.c:47
    1668:	a9bf7bfd 	stp	x29, x30, [sp, #-16]!
    166c:	910003fd 	mov	x29, sp
/home/zhaoxuyang/enc-db/ta_dev_kit/src/user_ta_header.c:48
    1670:	94000654 	bl	2fc0 <__utee_entry>
/home/zhaoxuyang/enc-db/ta_dev_kit/src/user_ta_header.c:59
    1674:	2a0003e0 	mov	w0, w0
    1678:	9400048d 	bl	28ac <_utee_return>

000000000000167c <tahead_get_trace_level>:
tahead_get_trace_level():
/home/zhaoxuyang/enc-db/ta_dev_kit/src/user_ta_header.c:149
    167c:	52800080 	mov	w0, #0x4                   	// #4
    1680:	d65f03c0 	ret

0000000000001684 <__stack_chk_fail>:
__stack_chk_fail():
/home/zhaoxuyang/Codes/rspi-demo/repo-tsu/optee_os/lib/libutils/isoc/stack_check.c:12 (discriminator 1)
    1684:	14000000 	b	1684 <__stack_chk_fail>

0000000000001688 <strcmp>:
strcmp():
/home/zhaoxuyang/Codes/rspi-demo/repo-tsu/optee_os/lib/libutils/isoc/newlib/strcmp.c:99
    1688:	d2800002 	mov	x2, #0x0                   	// #0
    168c:	38626803 	ldrb	w3, [x0, x2]
    1690:	38626824 	ldrb	w4, [x1, x2]
    1694:	34000083 	cbz	w3, 16a4 <strcmp+0x1c>
    1698:	91000442 	add	x2, x2, #0x1
/home/zhaoxuyang/Codes/rspi-demo/repo-tsu/optee_os/lib/libutils/isoc/newlib/strcmp.c:99 (discriminator 1)
    169c:	6b04007f 	cmp	w3, w4
    16a0:	54ffff60 	b.eq	168c <strcmp+0x4>  // b.none
/home/zhaoxuyang/Codes/rspi-demo/repo-tsu/optee_os/lib/libutils/isoc/newlib/strcmp.c:142
    16a4:	4b040060 	sub	w0, w3, w4
    16a8:	d65f03c0 	ret

00000000000016ac <strlen>:
strlen():
/home/zhaoxuyang/Codes/rspi-demo/repo-tsu/optee_os/lib/libutils/isoc/newlib/strlen.c:117
    16ac:	aa0003e1 	mov	x1, x0
    16b0:	39400022 	ldrb	w2, [x1]
    16b4:	35000062 	cbnz	w2, 16c0 <strlen+0x14>
/home/zhaoxuyang/Codes/rspi-demo/repo-tsu/optee_os/lib/libutils/isoc/newlib/strlen.c:120
    16b8:	cb000020 	sub	x0, x1, x0
    16bc:	d65f03c0 	ret
/home/zhaoxuyang/Codes/rspi-demo/repo-tsu/optee_os/lib/libutils/isoc/newlib/strlen.c:118
    16c0:	91000421 	add	x1, x1, #0x1
    16c4:	17fffffb 	b	16b0 <strlen+0x4>

00000000000016c8 <trace_set_level>:
trace_set_level():
/home/zhaoxuyang/Codes/rspi-demo/repo-tsu/optee_os/lib/libutils/ext/trace.c:29
    16c8:	7100141f 	cmp	w0, #0x5
    16cc:	52800081 	mov	w1, #0x4                   	// #4
    16d0:	1a813000 	csel	w0, w0, w1, cc  // cc = lo, ul, last
    16d4:	900000a1 	adrp	x1, 15000 <_DYNAMIC>
    16d8:	f940a421 	ldr	x1, [x1, #328]
    16dc:	b9000020 	str	w0, [x1]
/home/zhaoxuyang/Codes/rspi-demo/repo-tsu/optee_os/lib/libutils/ext/trace.c:30
    16e0:	d65f03c0 	ret

00000000000016e4 <trace_get_level>:
trace_get_level():
/home/zhaoxuyang/Codes/rspi-demo/repo-tsu/optee_os/lib/libutils/ext/trace.c:34
    16e4:	900000a0 	adrp	x0, 15000 <_DYNAMIC>
/home/zhaoxuyang/Codes/rspi-demo/repo-tsu/optee_os/lib/libutils/ext/trace.c:35
    16e8:	f940a400 	ldr	x0, [x0, #328]
    16ec:	b9400000 	ldr	w0, [x0]
    16f0:	d65f03c0 	ret

00000000000016f4 <trace_vprintf>:
trace_vprintf():
/home/zhaoxuyang/Codes/rspi-demo/repo-tsu/optee_os/lib/libutils/ext/trace.c:106
    16f4:	a9a87bfd 	stp	x29, x30, [sp, #-384]!
    16f8:	910003fd 	mov	x29, sp
    16fc:	a90153f3 	stp	x19, x20, [sp, #16]
    1700:	2a0203f3 	mov	w19, w2
    1704:	a9025bf5 	stp	x21, x22, [sp, #32]
    1708:	aa0003f6 	mov	x22, x0
    170c:	a90363f7 	stp	x23, x24, [sp, #48]
    1710:	aa0403f7 	mov	x23, x4
    1714:	aa0503f8 	mov	x24, x5
    1718:	a9046bf9 	stp	x25, x26, [sp, #64]
    171c:	2a0103f9 	mov	w25, w1
/home/zhaoxuyang/Codes/rspi-demo/repo-tsu/optee_os/lib/libutils/ext/trace.c:111
    1720:	72001c7a 	ands	w26, w3, #0xff
/home/zhaoxuyang/Codes/rspi-demo/repo-tsu/optee_os/lib/libutils/ext/trace.c:106
    1724:	f9002bfb 	str	x27, [sp, #80]
/home/zhaoxuyang/Codes/rspi-demo/repo-tsu/optee_os/lib/libutils/ext/trace.c:111
    1728:	54000b60 	b.eq	1894 <trace_vprintf+0x1a0>  // b.none
/home/zhaoxuyang/Codes/rspi-demo/repo-tsu/optee_os/lib/libutils/ext/trace.c:111 (discriminator 1)
    172c:	900000a3 	adrp	x3, 15000 <_DYNAMIC>
    1730:	f940a463 	ldr	x3, [x3, #328]
    1734:	b9400060 	ldr	w0, [x3]
    1738:	6b02001f 	cmp	w0, w2
    173c:	540009eb 	b.lt	1878 <trace_vprintf+0x184>  // b.tstop
trace_level_to_string():
/home/zhaoxuyang/Codes/rspi-demo/repo-tsu/optee_os/lib/libutils/ext/trace.c:52
    1740:	7100105f 	cmp	w2, #0x4
/home/zhaoxuyang/Codes/rspi-demo/repo-tsu/optee_os/lib/libutils/ext/trace.c:55
    1744:	d0000080 	adrp	x0, 13000 <SB5+0x84>
/home/zhaoxuyang/Codes/rspi-demo/repo-tsu/optee_os/lib/libutils/ext/trace.c:52
    1748:	1a9f9041 	csel	w1, w2, wzr, ls  // ls = plast
/home/zhaoxuyang/Codes/rspi-demo/repo-tsu/optee_os/lib/libutils/ext/trace.c:55
    174c:	91170400 	add	x0, x0, #0x5c1
    1750:	3861c803 	ldrb	w3, [x0, w1, sxtw]
trace_vprintf():
/home/zhaoxuyang/Codes/rspi-demo/repo-tsu/optee_os/lib/libutils/ext/trace.c:115
    1754:	910203f5 	add	x21, sp, #0x80
    1758:	d0000082 	adrp	x2, 13000 <SB5+0x84>
    175c:	aa1503e0 	mov	x0, x21
    1760:	91169c42 	add	x2, x2, #0x5a7
    1764:	d2802001 	mov	x1, #0x100                 	// #256
    1768:	940000b5 	bl	1a3c <snprintk>
/home/zhaoxuyang/Codes/rspi-demo/repo-tsu/optee_os/lib/libutils/ext/trace.c:117
    176c:	37f80860 	tbnz	w0, #31, 1878 <trace_vprintf+0x184>
/home/zhaoxuyang/Codes/rspi-demo/repo-tsu/optee_os/lib/libutils/ext/trace.c:122
    1770:	900000a3 	adrp	x3, 15000 <_DYNAMIC>
    1774:	d280201b 	mov	x27, #0x100                 	// #256
/home/zhaoxuyang/Codes/rspi-demo/repo-tsu/optee_os/lib/libutils/ext/trace.c:119
    1778:	93407c14 	sxtw	x20, w0
/home/zhaoxuyang/Codes/rspi-demo/repo-tsu/optee_os/lib/libutils/ext/trace.c:122
    177c:	cb20c361 	sub	x1, x27, w0, sxtw
    1780:	f940a863 	ldr	x3, [x3, #336]
    1784:	d0000082 	adrp	x2, 13000 <SB5+0x84>
    1788:	8b20c2a0 	add	x0, x21, w0, sxtw
    178c:	9116ac42 	add	x2, x2, #0x5ab
    1790:	940000ab 	bl	1a3c <snprintk>
/home/zhaoxuyang/Codes/rspi-demo/repo-tsu/optee_os/lib/libutils/ext/trace.c:124
    1794:	37f80720 	tbnz	w0, #31, 1878 <trace_vprintf+0x184>
/home/zhaoxuyang/Codes/rspi-demo/repo-tsu/optee_os/lib/libutils/ext/trace.c:126
    1798:	8b20c294 	add	x20, x20, w0, sxtw
/home/zhaoxuyang/Codes/rspi-demo/repo-tsu/optee_os/lib/libutils/ext/trace.c:128
    179c:	3400093a 	cbz	w26, 18c0 <trace_vprintf+0x1cc>
/home/zhaoxuyang/Codes/rspi-demo/repo-tsu/optee_os/lib/libutils/ext/trace.c:128 (discriminator 1)
    17a0:	52800342 	mov	w2, #0x1a                  	// #26
    17a4:	1ad32453 	lsr	w19, w2, w19
    17a8:	360008d3 	tbz	w19, #0, 18c0 <trace_vprintf+0x1cc>
print_thread_id():
/home/zhaoxuyang/Codes/rspi-demo/repo-tsu/optee_os/lib/libutils/ext/trace.c:65
    17ac:	940003ea 	bl	2754 <trace_ext_get_thread_id>
trace_vprintf():
/home/zhaoxuyang/Codes/rspi-demo/repo-tsu/optee_os/lib/libutils/ext/trace.c:130
    17b0:	8b1402ba 	add	x26, x21, x20
    17b4:	cb14037b 	sub	x27, x27, x20
print_thread_id():
/home/zhaoxuyang/Codes/rspi-demo/repo-tsu/optee_os/lib/libutils/ext/trace.c:65
    17b8:	2a0003e4 	mov	w4, w0
/home/zhaoxuyang/Codes/rspi-demo/repo-tsu/optee_os/lib/libutils/ext/trace.c:67
    17bc:	37f80700 	tbnz	w0, #31, 189c <trace_vprintf+0x1a8>
/home/zhaoxuyang/Codes/rspi-demo/repo-tsu/optee_os/lib/libutils/ext/trace.c:68
    17c0:	d0000082 	adrp	x2, 13000 <SB5+0x84>
    17c4:	aa1b03e1 	mov	x1, x27
    17c8:	9116bc42 	add	x2, x2, #0x5af
    17cc:	aa1a03e0 	mov	x0, x26
    17d0:	52800023 	mov	w3, #0x1                   	// #1
    17d4:	9400009a 	bl	1a3c <snprintk>
trace_vprintf():
/home/zhaoxuyang/Codes/rspi-demo/repo-tsu/optee_os/lib/libutils/ext/trace.c:137
    17d8:	37f80500 	tbnz	w0, #31, 1878 <trace_vprintf+0x184>
/home/zhaoxuyang/Codes/rspi-demo/repo-tsu/optee_os/lib/libutils/ext/trace.c:139
    17dc:	8b20c293 	add	x19, x20, w0, sxtw
/home/zhaoxuyang/Codes/rspi-demo/repo-tsu/optee_os/lib/libutils/ext/trace.c:141
    17e0:	b4000176 	cbz	x22, 180c <trace_vprintf+0x118>
/home/zhaoxuyang/Codes/rspi-demo/repo-tsu/optee_os/lib/libutils/ext/trace.c:142
    17e4:	d0000082 	adrp	x2, 13000 <SB5+0x84>
    17e8:	d2802001 	mov	x1, #0x100                 	// #256
    17ec:	2a1903e4 	mov	w4, w25
    17f0:	aa1603e3 	mov	x3, x22
    17f4:	9116e842 	add	x2, x2, #0x5ba
    17f8:	cb130021 	sub	x1, x1, x19
    17fc:	8b1302a0 	add	x0, x21, x19
    1800:	9400008f 	bl	1a3c <snprintk>
/home/zhaoxuyang/Codes/rspi-demo/repo-tsu/optee_os/lib/libutils/ext/trace.c:144
    1804:	37f803a0 	tbnz	w0, #31, 1878 <trace_vprintf+0x184>
/home/zhaoxuyang/Codes/rspi-demo/repo-tsu/optee_os/lib/libutils/ext/trace.c:146
    1808:	8b20c273 	add	x19, x19, w0, sxtw
/home/zhaoxuyang/Codes/rspi-demo/repo-tsu/optee_os/lib/libutils/ext/trace.c:156
    180c:	910183e3 	add	x3, sp, #0x60
    1810:	aa1803e1 	mov	x1, x24
    1814:	aa0303e0 	mov	x0, x3
    1818:	d2800402 	mov	x2, #0x20                  	// #32
    181c:	97fffa01 	bl	20 <memcpy>
    1820:	aa0003e3 	mov	x3, x0
    1824:	aa1703e2 	mov	x2, x23
    1828:	8b1302a0 	add	x0, x21, x19
    182c:	d2802001 	mov	x1, #0x100                 	// #256
    1830:	cb130021 	sub	x1, x1, x19
    1834:	9400006c 	bl	19e4 <vsnprintk>
/home/zhaoxuyang/Codes/rspi-demo/repo-tsu/optee_os/lib/libutils/ext/trace.c:157
    1838:	7100001f 	cmp	w0, #0x0
    183c:	5400004d 	b.le	1844 <trace_vprintf+0x150>
/home/zhaoxuyang/Codes/rspi-demo/repo-tsu/optee_os/lib/libutils/ext/trace.c:158
    1840:	8b20c273 	add	x19, x19, w0, sxtw
/home/zhaoxuyang/Codes/rspi-demo/repo-tsu/optee_os/lib/libutils/ext/trace.c:160
    1844:	f103fa7f 	cmp	x19, #0xfe
    1848:	d2801fc0 	mov	x0, #0xfe                  	// #254
    184c:	9a809273 	csel	x19, x19, x0, ls  // ls = plast
/home/zhaoxuyang/Codes/rspi-demo/repo-tsu/optee_os/lib/libutils/ext/trace.c:163
    1850:	52800140 	mov	w0, #0xa                   	// #10
    1854:	38336aa0 	strb	w0, [x21, x19]
/home/zhaoxuyang/Codes/rspi-demo/repo-tsu/optee_os/lib/libutils/ext/trace.c:164
    1858:	b4000093 	cbz	x19, 1868 <trace_vprintf+0x174>
/home/zhaoxuyang/Codes/rspi-demo/repo-tsu/optee_os/lib/libutils/ext/trace.c:164 (discriminator 1)
    185c:	38736aa0 	ldrb	w0, [x21, x19]
    1860:	7100281f 	cmp	w0, #0xa
    1864:	540003c0 	b.eq	18dc <trace_vprintf+0x1e8>  // b.none
/home/zhaoxuyang/Codes/rspi-demo/repo-tsu/optee_os/lib/libutils/ext/trace.c:167
    1868:	91020be0 	add	x0, sp, #0x82
    186c:	3833681f 	strb	wzr, [x0, x19]
/home/zhaoxuyang/Codes/rspi-demo/repo-tsu/optee_os/lib/libutils/ext/trace.c:169
    1870:	aa1503e0 	mov	x0, x21
    1874:	940003ae 	bl	272c <trace_ext_puts>
/home/zhaoxuyang/Codes/rspi-demo/repo-tsu/optee_os/lib/libutils/ext/trace.c:170
    1878:	a94153f3 	ldp	x19, x20, [sp, #16]
    187c:	a9425bf5 	ldp	x21, x22, [sp, #32]
    1880:	a94363f7 	ldp	x23, x24, [sp, #48]
    1884:	a9446bf9 	ldp	x25, x26, [sp, #64]
    1888:	f9402bfb 	ldr	x27, [sp, #80]
    188c:	a8d87bfd 	ldp	x29, x30, [sp], #384
    1890:	d65f03c0 	ret
trace_level_to_string():
/home/zhaoxuyang/Codes/rspi-demo/repo-tsu/optee_os/lib/libutils/ext/trace.c:50
    1894:	528009a3 	mov	w3, #0x4d                  	// #77
    1898:	17ffffaf 	b	1754 <trace_vprintf+0x60>
print_thread_id():
/home/zhaoxuyang/Codes/rspi-demo/repo-tsu/optee_os/lib/libutils/ext/trace.c:70
    189c:	aa1b03e1 	mov	x1, x27
    18a0:	aa1a03e0 	mov	x0, x26
    18a4:	d0000084 	adrp	x4, 13000 <SB5+0x84>
    18a8:	52800023 	mov	w3, #0x1                   	// #1
    18ac:	9111a084 	add	x4, x4, #0x468
    18b0:	d0000082 	adrp	x2, 13000 <SB5+0x84>
    18b4:	9116d442 	add	x2, x2, #0x5b5
    18b8:	94000061 	bl	1a3c <snprintk>
    18bc:	17ffffc7 	b	17d8 <trace_vprintf+0xe4>
trace_vprintf():
/home/zhaoxuyang/Codes/rspi-demo/repo-tsu/optee_os/lib/libutils/ext/trace.c:150
    18c0:	f103fa9f 	cmp	x20, #0xfe
    18c4:	54fffda8 	b.hi	1878 <trace_vprintf+0x184>  // b.pmore
/home/zhaoxuyang/Codes/rspi-demo/repo-tsu/optee_os/lib/libutils/ext/trace.c:152
    18c8:	91000693 	add	x19, x20, #0x1
    18cc:	52800400 	mov	w0, #0x20                  	// #32
    18d0:	38346aa0 	strb	w0, [x21, x20]
/home/zhaoxuyang/Codes/rspi-demo/repo-tsu/optee_os/lib/libutils/ext/trace.c:153
    18d4:	38336abf 	strb	wzr, [x21, x19]
    18d8:	17ffffcd 	b	180c <trace_vprintf+0x118>
/home/zhaoxuyang/Codes/rspi-demo/repo-tsu/optee_os/lib/libutils/ext/trace.c:165
    18dc:	d1000673 	sub	x19, x19, #0x1
    18e0:	17ffffde 	b	1858 <trace_vprintf+0x164>

00000000000018e4 <trace_printf>:
trace_printf():
/home/zhaoxuyang/Codes/rspi-demo/repo-tsu/optee_os/lib/libutils/ext/trace.c:97
    18e4:	a9b17bfd 	stp	x29, x30, [sp, #-240]!
    18e8:	910003fd 	mov	x29, sp
    18ec:	a90d9be5 	stp	x5, x6, [sp, #216]
/home/zhaoxuyang/Codes/rspi-demo/repo-tsu/optee_os/lib/libutils/ext/trace.c:100
    18f0:	9103c3e5 	add	x5, sp, #0xf0
    18f4:	a90317e5 	stp	x5, x5, [sp, #48]
    18f8:	910343e5 	add	x5, sp, #0xd0
    18fc:	f90023e5 	str	x5, [sp, #64]
    1900:	128002e5 	mov	w5, #0xffffffe8            	// #-24
    1904:	b9004be5 	str	w5, [sp, #72]
    1908:	12800fe5 	mov	w5, #0xffffff80            	// #-128
    190c:	b9004fe5 	str	w5, [sp, #76]
/home/zhaoxuyang/Codes/rspi-demo/repo-tsu/optee_os/lib/libutils/ext/trace.c:101
    1910:	910043e5 	add	x5, sp, #0x10
/home/zhaoxuyang/Codes/rspi-demo/repo-tsu/optee_os/lib/libutils/ext/trace.c:97
    1914:	f90077e7 	str	x7, [sp, #232]
/home/zhaoxuyang/Codes/rspi-demo/repo-tsu/optee_os/lib/libutils/ext/trace.c:101
    1918:	a9431fe6 	ldp	x6, x7, [sp, #48]
    191c:	a9011fe6 	stp	x6, x7, [sp, #16]
    1920:	a9441fe6 	ldp	x6, x7, [sp, #64]
    1924:	a9021fe6 	stp	x6, x7, [sp, #32]
/home/zhaoxuyang/Codes/rspi-demo/repo-tsu/optee_os/lib/libutils/ext/trace.c:97
    1928:	3d8017e0 	str	q0, [sp, #80]
    192c:	3d801be1 	str	q1, [sp, #96]
    1930:	3d801fe2 	str	q2, [sp, #112]
    1934:	3d8023e3 	str	q3, [sp, #128]
    1938:	3d8027e4 	str	q4, [sp, #144]
    193c:	3d802be5 	str	q5, [sp, #160]
    1940:	3d802fe6 	str	q6, [sp, #176]
    1944:	3d8033e7 	str	q7, [sp, #192]
/home/zhaoxuyang/Codes/rspi-demo/repo-tsu/optee_os/lib/libutils/ext/trace.c:101
    1948:	97ffff6b 	bl	16f4 <trace_vprintf>
/home/zhaoxuyang/Codes/rspi-demo/repo-tsu/optee_os/lib/libutils/ext/trace.c:103
    194c:	a8cf7bfd 	ldp	x29, x30, [sp], #240
    1950:	d65f03c0 	ret

0000000000001954 <dhex_dump>:
dhex_dump():
/home/zhaoxuyang/Codes/rspi-demo/repo-tsu/optee_os/lib/libutils/ext/trace.c:280
    1954:	d65f03c0 	ret

0000000000001958 <__vsnprintf>:
__vsnprintf():
/home/zhaoxuyang/Codes/rspi-demo/repo-tsu/optee_os/lib/libutils/ext/snprintk.c:138
    1958:	a9b97bfd 	stp	x29, x30, [sp, #-112]!
    195c:	910003fd 	mov	x29, sp
    1960:	a90153f3 	stp	x19, x20, [sp, #16]
    1964:	aa0103f4 	mov	x20, x1
    1968:	aa0003f3 	mov	x19, x0
    196c:	aa0303e1 	mov	x1, x3
    1970:	a9025bf5 	stp	x21, x22, [sp, #32]
    1974:	aa0203f5 	mov	x21, x2
/home/zhaoxuyang/Codes/rspi-demo/repo-tsu/optee_os/lib/libutils/ext/snprintk.c:142
    1978:	8b140016 	add	x22, x0, x20
/home/zhaoxuyang/Codes/rspi-demo/repo-tsu/optee_os/lib/libutils/ext/snprintk.c:143
    197c:	d2800402 	mov	x2, #0x20                  	// #32
    1980:	910103e0 	add	x0, sp, #0x40
/home/zhaoxuyang/Codes/rspi-demo/repo-tsu/optee_os/lib/libutils/ext/snprintk.c:138
    1984:	f9001bf7 	str	x23, [sp, #48]
    1988:	12001c97 	and	w23, w4, #0xff
/home/zhaoxuyang/Codes/rspi-demo/repo-tsu/optee_os/lib/libutils/ext/snprintk.c:142
    198c:	f90037f6 	str	x22, [sp, #104]
/home/zhaoxuyang/Codes/rspi-demo/repo-tsu/optee_os/lib/libutils/ext/snprintk.c:143
    1990:	97fff9a4 	bl	20 <memcpy>
    1994:	aa0003e3 	mov	x3, x0
    1998:	2a1703e4 	mov	w4, w23
    199c:	aa1303e2 	mov	x2, x19
    19a0:	9101a3e1 	add	x1, sp, #0x68
    19a4:	aa1503e0 	mov	x0, x21
    19a8:	94000042 	bl	1ab0 <kprintf.constprop.0>
/home/zhaoxuyang/Codes/rspi-demo/repo-tsu/optee_os/lib/libutils/ext/snprintk.c:144
    19ac:	f100027f 	cmp	x19, #0x0
    19b0:	fa401a84 	ccmp	x20, #0x0, #0x4, ne  // ne = any
    19b4:	540000a0 	b.eq	19c8 <__vsnprintf+0x70>  // b.none
/home/zhaoxuyang/Codes/rspi-demo/repo-tsu/optee_os/lib/libutils/ext/snprintk.c:146
    19b8:	93407c01 	sxtw	x1, w0
    19bc:	eb20c29f 	cmp	x20, w0, sxtw
    19c0:	540000e8 	b.hi	19dc <__vsnprintf+0x84>  // b.pmore
/home/zhaoxuyang/Codes/rspi-demo/repo-tsu/optee_os/lib/libutils/ext/snprintk.c:147
    19c4:	381ff2df 	sturb	wzr, [x22, #-1]
/home/zhaoxuyang/Codes/rspi-demo/repo-tsu/optee_os/lib/libutils/ext/snprintk.c:152
    19c8:	a94153f3 	ldp	x19, x20, [sp, #16]
    19cc:	a9425bf5 	ldp	x21, x22, [sp, #32]
    19d0:	f9401bf7 	ldr	x23, [sp, #48]
    19d4:	a8c77bfd 	ldp	x29, x30, [sp], #112
    19d8:	d65f03c0 	ret
/home/zhaoxuyang/Codes/rspi-demo/repo-tsu/optee_os/lib/libutils/ext/snprintk.c:149
    19dc:	38216a7f 	strb	wzr, [x19, x1]
/home/zhaoxuyang/Codes/rspi-demo/repo-tsu/optee_os/lib/libutils/ext/snprintk.c:151
    19e0:	17fffffa 	b	19c8 <__vsnprintf+0x70>

00000000000019e4 <vsnprintk>:
vsnprintk():
/home/zhaoxuyang/Codes/rspi-demo/repo-tsu/optee_os/lib/libutils/ext/snprintk.c:130
    19e4:	a9bb7bfd 	stp	x29, x30, [sp, #-80]!
/home/zhaoxuyang/Codes/rspi-demo/repo-tsu/optee_os/lib/libutils/ext/snprintk.c:131
    19e8:	9100c3e4 	add	x4, sp, #0x30
/home/zhaoxuyang/Codes/rspi-demo/repo-tsu/optee_os/lib/libutils/ext/snprintk.c:130
    19ec:	910003fd 	mov	x29, sp
    19f0:	a90153f3 	stp	x19, x20, [sp, #16]
    19f4:	aa0003f3 	mov	x19, x0
    19f8:	aa0103f4 	mov	x20, x1
/home/zhaoxuyang/Codes/rspi-demo/repo-tsu/optee_os/lib/libutils/ext/snprintk.c:131
    19fc:	aa0403e0 	mov	x0, x4
/home/zhaoxuyang/Codes/rspi-demo/repo-tsu/optee_os/lib/libutils/ext/snprintk.c:130
    1a00:	aa0303e1 	mov	x1, x3
    1a04:	f90013f5 	str	x21, [sp, #32]
    1a08:	aa0203f5 	mov	x21, x2
/home/zhaoxuyang/Codes/rspi-demo/repo-tsu/optee_os/lib/libutils/ext/snprintk.c:131
    1a0c:	d2800402 	mov	x2, #0x20                  	// #32
    1a10:	97fff984 	bl	20 <memcpy>
    1a14:	aa1503e2 	mov	x2, x21
    1a18:	aa0003e3 	mov	x3, x0
    1a1c:	aa1403e1 	mov	x1, x20
    1a20:	aa1303e0 	mov	x0, x19
    1a24:	52800024 	mov	w4, #0x1                   	// #1
    1a28:	97ffffcc 	bl	1958 <__vsnprintf>
/home/zhaoxuyang/Codes/rspi-demo/repo-tsu/optee_os/lib/libutils/ext/snprintk.c:132
    1a2c:	a94153f3 	ldp	x19, x20, [sp, #16]
    1a30:	f94013f5 	ldr	x21, [sp, #32]
    1a34:	a8c57bfd 	ldp	x29, x30, [sp], #80
    1a38:	d65f03c0 	ret

0000000000001a3c <snprintk>:
snprintk():
/home/zhaoxuyang/Codes/rspi-demo/repo-tsu/optee_os/lib/libutils/ext/snprintk.c:113
    1a3c:	a9b07bfd 	stp	x29, x30, [sp, #-256]!
    1a40:	910003fd 	mov	x29, sp
    1a44:	a90d93e3 	stp	x3, x4, [sp, #216]
/home/zhaoxuyang/Codes/rspi-demo/repo-tsu/optee_os/lib/libutils/ext/snprintk.c:117
    1a48:	910403e3 	add	x3, sp, #0x100
    1a4c:	a9030fe3 	stp	x3, x3, [sp, #48]
    1a50:	910343e3 	add	x3, sp, #0xd0
    1a54:	f90023e3 	str	x3, [sp, #64]
    1a58:	128004e3 	mov	w3, #0xffffffd8            	// #-40
    1a5c:	b9004be3 	str	w3, [sp, #72]
    1a60:	12800fe3 	mov	w3, #0xffffff80            	// #-128
    1a64:	b9004fe3 	str	w3, [sp, #76]
/home/zhaoxuyang/Codes/rspi-demo/repo-tsu/optee_os/lib/libutils/ext/snprintk.c:118
    1a68:	910043e3 	add	x3, sp, #0x10
/home/zhaoxuyang/Codes/rspi-demo/repo-tsu/optee_os/lib/libutils/ext/snprintk.c:113
    1a6c:	a90e9be5 	stp	x5, x6, [sp, #232]
/home/zhaoxuyang/Codes/rspi-demo/repo-tsu/optee_os/lib/libutils/ext/snprintk.c:118
    1a70:	a94317e4 	ldp	x4, x5, [sp, #48]
    1a74:	a90117e4 	stp	x4, x5, [sp, #16]
    1a78:	a94417e4 	ldp	x4, x5, [sp, #64]
    1a7c:	a90217e4 	stp	x4, x5, [sp, #32]
/home/zhaoxuyang/Codes/rspi-demo/repo-tsu/optee_os/lib/libutils/ext/snprintk.c:113
    1a80:	3d8017e0 	str	q0, [sp, #80]
    1a84:	3d801be1 	str	q1, [sp, #96]
    1a88:	3d801fe2 	str	q2, [sp, #112]
    1a8c:	3d8023e3 	str	q3, [sp, #128]
    1a90:	3d8027e4 	str	q4, [sp, #144]
    1a94:	3d802be5 	str	q5, [sp, #160]
    1a98:	3d802fe6 	str	q6, [sp, #176]
    1a9c:	3d8033e7 	str	q7, [sp, #192]
    1aa0:	f9007fe7 	str	x7, [sp, #248]
/home/zhaoxuyang/Codes/rspi-demo/repo-tsu/optee_os/lib/libutils/ext/snprintk.c:118
    1aa4:	97ffffd0 	bl	19e4 <vsnprintk>
/home/zhaoxuyang/Codes/rspi-demo/repo-tsu/optee_os/lib/libutils/ext/snprintk.c:122
    1aa8:	a8d07bfd 	ldp	x29, x30, [sp], #256
    1aac:	d65f03c0 	ret

0000000000001ab0 <kprintf.constprop.0>:
kprintf():
/home/zhaoxuyang/Codes/rspi-demo/repo-tsu/optee_os/lib/libutils/ext/snprintk.c:242
    1ab0:	d103c3ff 	sub	sp, sp, #0xf0
    1ab4:	aa0103e8 	mov	x8, x1
    1ab8:	a9037bfd 	stp	x29, x30, [sp, #48]
    1abc:	9100c3fd 	add	x29, sp, #0x30
    1ac0:	a90453f3 	stp	x19, x20, [sp, #64]
    1ac4:	b9401874 	ldr	w20, [x3, #24]
    1ac8:	a9055bf5 	stp	x21, x22, [sp, #80]
    1acc:	aa0203f6 	mov	x22, x2
    1ad0:	a90663f7 	stp	x23, x24, [sp, #96]
    1ad4:	a9076bf9 	stp	x25, x26, [sp, #112]
    1ad8:	a90873fb 	stp	x27, x28, [sp, #128]
    1adc:	aa0003fb 	mov	x27, x0
    1ae0:	12001c80 	and	w0, w4, #0xff
    1ae4:	b900a3e0 	str	w0, [sp, #160]
    1ae8:	a9406873 	ldp	x19, x26, [x3]
/home/zhaoxuyang/Codes/rspi-demo/repo-tsu/optee_os/lib/libutils/ext/snprintk.c:264
    1aec:	b40004c1 	cbz	x1, 1b84 <kprintf.constprop.0+0xd4>
/home/zhaoxuyang/Codes/rspi-demo/repo-tsu/optee_os/lib/libutils/ext/snprintk.c:265
    1af0:	f9400038 	ldr	x24, [x1]
/home/zhaoxuyang/Codes/rspi-demo/repo-tsu/optee_os/lib/libutils/ext/snprintk.c:543
    1af4:	910323ec 	add	x12, sp, #0xc8
    1af8:	b0000080 	adrp	x0, 12000 <iv_test_data+0x98>
/home/zhaoxuyang/Codes/rspi-demo/repo-tsu/optee_os/lib/libutils/ext/snprintk.c:275
    1afc:	d2800017 	mov	x23, #0x0                   	// #0
    1b00:	91152000 	add	x0, x0, #0x548
/home/zhaoxuyang/Codes/rspi-demo/repo-tsu/optee_os/lib/libutils/ext/snprintk.c:273
    1b04:	52800019 	mov	w25, #0x0                   	// #0
    1b08:	f9004be0 	str	x0, [sp, #144]
/home/zhaoxuyang/Codes/rspi-demo/repo-tsu/optee_os/lib/libutils/ext/snprintk.c:281
    1b0c:	39400360 	ldrb	w0, [x27]
    1b10:	7100941f 	cmp	w0, #0x25
    1b14:	7a401804 	ccmp	w0, #0x0, #0x4, ne  // ne = any
    1b18:	540003a1 	b.ne	1b8c <kprintf.constprop.0+0xdc>  // b.any
/home/zhaoxuyang/Codes/rspi-demo/repo-tsu/optee_os/lib/libutils/ext/snprintk.c:285
    1b1c:	34005260 	cbz	w0, 2568 <kprintf.constprop.0+0xab8>
/home/zhaoxuyang/Codes/rspi-demo/repo-tsu/optee_os/lib/libutils/ext/snprintk.c:293
    1b20:	12800005 	mov	w5, #0xffffffff            	// #-1
    1b24:	b0000086 	adrp	x6, 12000 <iv_test_data+0x98>
/home/zhaoxuyang/Codes/rspi-demo/repo-tsu/optee_os/lib/libutils/ext/snprintk.c:288
    1b28:	9100077b 	add	x27, x27, #0x1
    1b2c:	2a1403e4 	mov	w4, w20
    1b30:	aa1303e3 	mov	x3, x19
    1b34:	911590c6 	add	x6, x6, #0x564
/home/zhaoxuyang/Codes/rspi-demo/repo-tsu/optee_os/lib/libutils/ext/snprintk.c:330
    1b38:	2a0503ee 	mov	w14, w5
/home/zhaoxuyang/Codes/rspi-demo/repo-tsu/optee_os/lib/libutils/ext/snprintk.c:294
    1b3c:	52800001 	mov	w1, #0x0                   	// #0
/home/zhaoxuyang/Codes/rspi-demo/repo-tsu/optee_os/lib/libutils/ext/snprintk.c:292
    1b40:	5280000a 	mov	w10, #0x0                   	// #0
/home/zhaoxuyang/Codes/rspi-demo/repo-tsu/optee_os/lib/libutils/ext/snprintk.c:290
    1b44:	52800015 	mov	w21, #0x0                   	// #0
/home/zhaoxuyang/Codes/rspi-demo/repo-tsu/optee_os/lib/libutils/ext/snprintk.c:352
    1b48:	5280014d 	mov	w13, #0xa                   	// #10
/home/zhaoxuyang/Codes/rspi-demo/repo-tsu/optee_os/lib/libutils/ext/snprintk.c:305
    1b4c:	5280040f 	mov	w15, #0x20                  	// #32
/home/zhaoxuyang/Codes/rspi-demo/repo-tsu/optee_os/lib/libutils/ext/snprintk.c:296
    1b50:	3840177c 	ldrb	w28, [x27], #1
/home/zhaoxuyang/Codes/rspi-demo/repo-tsu/optee_os/lib/libutils/ext/snprintk.c:297
    1b54:	7100e79f 	cmp	w28, #0x39
    1b58:	5400054c 	b.gt	1c00 <kprintf.constprop.0+0x150>
    1b5c:	71007f9f 	cmp	w28, #0x1f
    1b60:	5400502d 	b.le	2564 <kprintf.constprop.0+0xab4>
    1b64:	51008380 	sub	w0, w28, #0x20
    1b68:	7100641f 	cmp	w0, #0x19
    1b6c:	54000508 	b.hi	1c0c <kprintf.constprop.0+0x15c>  // b.pmore
    1b70:	f9404be2 	ldr	x2, [sp, #144]
    1b74:	38604840 	ldrb	w0, [x2, w0, uxtw]
    1b78:	10000062 	adr	x2, 1b84 <kprintf.constprop.0+0xd4>
    1b7c:	8b208840 	add	x0, x2, w0, sxtb #2
    1b80:	d61f0000 	br	x0
/home/zhaoxuyang/Codes/rspi-demo/repo-tsu/optee_os/lib/libutils/ext/snprintk.c:267
    1b84:	d2800018 	mov	x24, #0x0                   	// #0
    1b88:	17ffffdb 	b	1af4 <kprintf.constprop.0+0x44>
/home/zhaoxuyang/Codes/rspi-demo/repo-tsu/optee_os/lib/libutils/ext/snprintk.c:282
    1b8c:	11000739 	add	w25, w25, #0x1
/home/zhaoxuyang/Codes/rspi-demo/repo-tsu/optee_os/lib/libutils/ext/snprintk.c:283
    1b90:	b40000b6 	cbz	x22, 1ba4 <kprintf.constprop.0+0xf4>
    1b94:	f100011f 	cmp	x8, #0x0
    1b98:	fa5812c0 	ccmp	x22, x24, #0x0, ne  // ne = any
    1b9c:	54000042 	b.cs	1ba4 <kprintf.constprop.0+0xf4>  // b.hs, b.nlast
    1ba0:	380016c0 	strb	w0, [x22], #1
/home/zhaoxuyang/Codes/rspi-demo/repo-tsu/optee_os/lib/libutils/ext/snprintk.c:281
    1ba4:	9100077b 	add	x27, x27, #0x1
    1ba8:	17ffffd9 	b	1b0c <kprintf.constprop.0+0x5c>
/home/zhaoxuyang/Codes/rspi-demo/repo-tsu/optee_os/lib/libutils/ext/snprintk.c:325
    1bac:	52800561 	mov	w1, #0x2b                  	// #43
    1bb0:	17ffffe8 	b	1b50 <kprintf.constprop.0+0xa0>
    1bb4:	786058c0 	ldrh	w0, [x6, w0, uxtw #1]
    1bb8:	10000062 	adr	x2, 1bc4 <kprintf.constprop.0+0x114>
    1bbc:	8b20a840 	add	x0, x2, w0, sxth #2
    1bc0:	d61f0000 	br	x0
/home/zhaoxuyang/Codes/rspi-demo/repo-tsu/optee_os/lib/libutils/ext/snprintk.c:480
    1bc4:	b0000097 	adrp	x23, 12000 <iv_test_data+0x98>
    1bc8:	91174af7 	add	x23, x23, #0x5d2
    1bcc:	910046f7 	add	x23, x23, #0x11
/home/zhaoxuyang/Codes/rspi-demo/repo-tsu/optee_os/lib/libutils/ext/snprintk.c:481
    1bd0:	36384515 	tbz	w21, #7, 2470 <kprintf.constprop.0+0x9c0>
    1bd4:	37f84644 	tbnz	w4, #31, 249c <kprintf.constprop.0+0x9ec>
    1bd8:	91003c73 	add	x19, x3, #0xf
    1bdc:	2a0403f4 	mov	w20, w4
    1be0:	927df273 	and	x19, x19, #0xfffffffffffffff8
    1be4:	f9400062 	ldr	x2, [x3]
/home/zhaoxuyang/Codes/rspi-demo/repo-tsu/optee_os/lib/libutils/ext/snprintk.c:484
    1be8:	36003475 	tbz	w21, #0, 2274 <kprintf.constprop.0+0x7c4>
    1bec:	b4003442 	cbz	x2, 2274 <kprintf.constprop.0+0x7c4>
/home/zhaoxuyang/Codes/rspi-demo/repo-tsu/optee_os/lib/libutils/ext/snprintk.c:485
    1bf0:	321f02b5 	orr	w21, w21, #0x2
/home/zhaoxuyang/Codes/rspi-demo/repo-tsu/optee_os/lib/libutils/ext/snprintk.c:482
    1bf4:	52800040 	mov	w0, #0x2                   	// #2
/home/zhaoxuyang/Codes/rspi-demo/repo-tsu/optee_os/lib/libutils/ext/snprintk.c:488
    1bf8:	52800001 	mov	w1, #0x0                   	// #0
    1bfc:	14000078 	b	1ddc <kprintf.constprop.0+0x32c>
/home/zhaoxuyang/Codes/rspi-demo/repo-tsu/optee_os/lib/libutils/ext/snprintk.c:297
    1c00:	51011380 	sub	w0, w28, #0x44
    1c04:	7100d81f 	cmp	w0, #0x36
    1c08:	54fffd69 	b.ls	1bb4 <kprintf.constprop.0+0x104>  // b.plast
/home/zhaoxuyang/Codes/rspi-demo/repo-tsu/optee_os/lib/libutils/ext/snprintk.c:554
    1c0c:	2a0403f4 	mov	w20, w4
    1c10:	aa0303f3 	mov	x19, x3
/home/zhaoxuyang/Codes/rspi-demo/repo-tsu/optee_os/lib/libutils/ext/snprintk.c:551
    1c14:	390323fc 	strb	w28, [sp, #200]
/home/zhaoxuyang/Codes/rspi-demo/repo-tsu/optee_os/lib/libutils/ext/snprintk.c:554
    1c18:	14000058 	b	1d78 <kprintf.constprop.0+0x2c8>
/home/zhaoxuyang/Codes/rspi-demo/repo-tsu/optee_os/lib/libutils/ext/snprintk.c:305
    1c1c:	7100003f 	cmp	w1, #0x0
    1c20:	1a8f1021 	csel	w1, w1, w15, ne  // ne = any
    1c24:	17ffffcb 	b	1b50 <kprintf.constprop.0+0xa0>
/home/zhaoxuyang/Codes/rspi-demo/repo-tsu/optee_os/lib/libutils/ext/snprintk.c:308
    1c28:	320002b5 	orr	w21, w21, #0x1
/home/zhaoxuyang/Codes/rspi-demo/repo-tsu/optee_os/lib/libutils/ext/snprintk.c:309
    1c2c:	17ffffc9 	b	1b50 <kprintf.constprop.0+0xa0>
/home/zhaoxuyang/Codes/rspi-demo/repo-tsu/optee_os/lib/libutils/ext/snprintk.c:317
    1c30:	37f80124 	tbnz	w4, #31, 1c54 <kprintf.constprop.0+0x1a4>
    1c34:	91002c62 	add	x2, x3, #0xb
    1c38:	aa0303e0 	mov	x0, x3
    1c3c:	927df043 	and	x3, x2, #0xfffffffffffffff8
    1c40:	b940000a 	ldr	w10, [x0]
    1c44:	36fff86a 	tbz	w10, #31, 1b50 <kprintf.constprop.0+0xa0>
/home/zhaoxuyang/Codes/rspi-demo/repo-tsu/optee_os/lib/libutils/ext/snprintk.c:319
    1c48:	4b0a03ea 	neg	w10, w10
/home/zhaoxuyang/Codes/rspi-demo/repo-tsu/optee_os/lib/libutils/ext/snprintk.c:322
    1c4c:	321e02b5 	orr	w21, w21, #0x4
/home/zhaoxuyang/Codes/rspi-demo/repo-tsu/optee_os/lib/libutils/ext/snprintk.c:323
    1c50:	17ffffc0 	b	1b50 <kprintf.constprop.0+0xa0>
/home/zhaoxuyang/Codes/rspi-demo/repo-tsu/optee_os/lib/libutils/ext/snprintk.c:317
    1c54:	11002082 	add	w2, w4, #0x8
    1c58:	7100005f 	cmp	w2, #0x0
    1c5c:	540000cd 	b.le	1c74 <kprintf.constprop.0+0x1c4>
    1c60:	91002c67 	add	x7, x3, #0xb
    1c64:	aa0303e0 	mov	x0, x3
    1c68:	2a0203e4 	mov	w4, w2
    1c6c:	927df0e3 	and	x3, x7, #0xfffffffffffffff8
    1c70:	17fffff4 	b	1c40 <kprintf.constprop.0+0x190>
    1c74:	8b24c340 	add	x0, x26, w4, sxtw
    1c78:	2a0203e4 	mov	w4, w2
    1c7c:	17fffff1 	b	1c40 <kprintf.constprop.0+0x190>
/home/zhaoxuyang/Codes/rspi-demo/repo-tsu/optee_os/lib/libutils/ext/snprintk.c:328
    1c80:	3840177c 	ldrb	w28, [x27], #1
    1c84:	7100ab9f 	cmp	w28, #0x2a
    1c88:	54000341 	b.ne	1cf0 <kprintf.constprop.0+0x240>  // b.any
/home/zhaoxuyang/Codes/rspi-demo/repo-tsu/optee_os/lib/libutils/ext/snprintk.c:329
    1c8c:	37f80144 	tbnz	w4, #31, 1cb4 <kprintf.constprop.0+0x204>
    1c90:	91002c62 	add	x2, x3, #0xb
    1c94:	2a0403e7 	mov	w7, w4
    1c98:	927df042 	and	x2, x2, #0xfffffffffffffff8
/home/zhaoxuyang/Codes/rspi-demo/repo-tsu/optee_os/lib/libutils/ext/snprintk.c:330
    1c9c:	b9400065 	ldr	w5, [x3]
/home/zhaoxuyang/Codes/rspi-demo/repo-tsu/optee_os/lib/libutils/ext/snprintk.c:331
    1ca0:	2a0703e4 	mov	w4, w7
    1ca4:	aa0203e3 	mov	x3, x2
/home/zhaoxuyang/Codes/rspi-demo/repo-tsu/optee_os/lib/libutils/ext/snprintk.c:330
    1ca8:	710000bf 	cmp	w5, #0x0
    1cac:	1a8ea0a5 	csel	w5, w5, w14, ge  // ge = tcont
/home/zhaoxuyang/Codes/rspi-demo/repo-tsu/optee_os/lib/libutils/ext/snprintk.c:331
    1cb0:	17ffffa8 	b	1b50 <kprintf.constprop.0+0xa0>
/home/zhaoxuyang/Codes/rspi-demo/repo-tsu/optee_os/lib/libutils/ext/snprintk.c:329
    1cb4:	11002087 	add	w7, w4, #0x8
    1cb8:	710000ff 	cmp	w7, #0x0
    1cbc:	5400008d 	b.le	1ccc <kprintf.constprop.0+0x21c>
    1cc0:	91002c62 	add	x2, x3, #0xb
    1cc4:	927df042 	and	x2, x2, #0xfffffffffffffff8
    1cc8:	17fffff5 	b	1c9c <kprintf.constprop.0+0x1ec>
    1ccc:	aa0303e2 	mov	x2, x3
    1cd0:	8b24c343 	add	x3, x26, w4, sxtw
    1cd4:	17fffff2 	b	1c9c <kprintf.constprop.0+0x1ec>
/home/zhaoxuyang/Codes/rspi-demo/repo-tsu/optee_os/lib/libutils/ext/snprintk.c:335
    1cd8:	1b0d00a5 	madd	w5, w5, w13, w0
/home/zhaoxuyang/Codes/rspi-demo/repo-tsu/optee_os/lib/libutils/ext/snprintk.c:336
    1cdc:	3840177c 	ldrb	w28, [x27], #1
/home/zhaoxuyang/Codes/rspi-demo/repo-tsu/optee_os/lib/libutils/ext/snprintk.c:334
    1ce0:	5100c380 	sub	w0, w28, #0x30
    1ce4:	7100241f 	cmp	w0, #0x9
    1ce8:	54ffff89 	b.ls	1cd8 <kprintf.constprop.0+0x228>  // b.plast
    1cec:	17ffff9a 	b	1b54 <kprintf.constprop.0+0xa4>
/home/zhaoxuyang/Codes/rspi-demo/repo-tsu/optee_os/lib/libutils/ext/snprintk.c:333
    1cf0:	52800005 	mov	w5, #0x0                   	// #0
    1cf4:	17fffffb 	b	1ce0 <kprintf.constprop.0+0x230>
/home/zhaoxuyang/Codes/rspi-demo/repo-tsu/optee_os/lib/libutils/ext/snprintk.c:346
    1cf8:	321602b5 	orr	w21, w21, #0x400
/home/zhaoxuyang/Codes/rspi-demo/repo-tsu/optee_os/lib/libutils/ext/snprintk.c:347
    1cfc:	17ffff95 	b	1b50 <kprintf.constprop.0+0xa0>
/home/zhaoxuyang/Codes/rspi-demo/repo-tsu/optee_os/lib/libutils/ext/snprintk.c:297
    1d00:	5280000a 	mov	w10, #0x0                   	// #0
/home/zhaoxuyang/Codes/rspi-demo/repo-tsu/optee_os/lib/libutils/ext/snprintk.c:352
    1d04:	5100c39c 	sub	w28, w28, #0x30
    1d08:	1b0d714a 	madd	w10, w10, w13, w28
/home/zhaoxuyang/Codes/rspi-demo/repo-tsu/optee_os/lib/libutils/ext/snprintk.c:353
    1d0c:	3840177c 	ldrb	w28, [x27], #1
/home/zhaoxuyang/Codes/rspi-demo/repo-tsu/optee_os/lib/libutils/ext/snprintk.c:354
    1d10:	5100c380 	sub	w0, w28, #0x30
    1d14:	7100241f 	cmp	w0, #0x9
    1d18:	54ffff69 	b.ls	1d04 <kprintf.constprop.0+0x254>  // b.plast
    1d1c:	17ffff8e 	b	1b54 <kprintf.constprop.0+0xa4>
/home/zhaoxuyang/Codes/rspi-demo/repo-tsu/optee_os/lib/libutils/ext/snprintk.c:358
    1d20:	321a02b5 	orr	w21, w21, #0x40
/home/zhaoxuyang/Codes/rspi-demo/repo-tsu/optee_os/lib/libutils/ext/snprintk.c:359
    1d24:	17ffff8b 	b	1b50 <kprintf.constprop.0+0xa0>
/home/zhaoxuyang/Codes/rspi-demo/repo-tsu/optee_os/lib/libutils/ext/snprintk.c:361
    1d28:	321902b5 	orr	w21, w21, #0x80
/home/zhaoxuyang/Codes/rspi-demo/repo-tsu/optee_os/lib/libutils/ext/snprintk.c:362
    1d2c:	17ffff89 	b	1b50 <kprintf.constprop.0+0xa0>
/home/zhaoxuyang/Codes/rspi-demo/repo-tsu/optee_os/lib/libutils/ext/snprintk.c:364
    1d30:	39400360 	ldrb	w0, [x27]
    1d34:	7101b01f 	cmp	w0, #0x6c
    1d38:	54000081 	b.ne	1d48 <kprintf.constprop.0+0x298>  // b.any
    1d3c:	9100077b 	add	x27, x27, #0x1
/home/zhaoxuyang/Codes/rspi-demo/repo-tsu/optee_os/lib/libutils/ext/snprintk.c:372
    1d40:	321b02b5 	orr	w21, w21, #0x20
/home/zhaoxuyang/Codes/rspi-demo/repo-tsu/optee_os/lib/libutils/ext/snprintk.c:373
    1d44:	17ffff83 	b	1b50 <kprintf.constprop.0+0xa0>
/home/zhaoxuyang/Codes/rspi-demo/repo-tsu/optee_os/lib/libutils/ext/snprintk.c:368
    1d48:	321c02b5 	orr	w21, w21, #0x10
    1d4c:	17ffff81 	b	1b50 <kprintf.constprop.0+0xa0>
/home/zhaoxuyang/Codes/rspi-demo/repo-tsu/optee_os/lib/libutils/ext/snprintk.c:375
    1d50:	321802b5 	orr	w21, w21, #0x100
/home/zhaoxuyang/Codes/rspi-demo/repo-tsu/optee_os/lib/libutils/ext/snprintk.c:376
    1d54:	17ffff7f 	b	1b50 <kprintf.constprop.0+0xa0>
/home/zhaoxuyang/Codes/rspi-demo/repo-tsu/optee_os/lib/libutils/ext/snprintk.c:378
    1d58:	321702b5 	orr	w21, w21, #0x200
/home/zhaoxuyang/Codes/rspi-demo/repo-tsu/optee_os/lib/libutils/ext/snprintk.c:379
    1d5c:	17ffff7d 	b	1b50 <kprintf.constprop.0+0xa0>
/home/zhaoxuyang/Codes/rspi-demo/repo-tsu/optee_os/lib/libutils/ext/snprintk.c:381
    1d60:	37f80164 	tbnz	w4, #31, 1d8c <kprintf.constprop.0+0x2dc>
    1d64:	91002c73 	add	x19, x3, #0xb
    1d68:	2a0403f4 	mov	w20, w4
    1d6c:	927df273 	and	x19, x19, #0xfffffffffffffff8
    1d70:	b9400060 	ldr	w0, [x3]
    1d74:	390323e0 	strb	w0, [sp, #200]
/home/zhaoxuyang/Codes/rspi-demo/repo-tsu/optee_os/lib/libutils/ext/snprintk.c:550
    1d78:	910323e3 	add	x3, sp, #0xc8
/home/zhaoxuyang/Codes/rspi-demo/repo-tsu/optee_os/lib/libutils/ext/snprintk.c:552
    1d7c:	52800025 	mov	w5, #0x1                   	// #1
/home/zhaoxuyang/Codes/rspi-demo/repo-tsu/optee_os/lib/libutils/ext/snprintk.c:291
    1d80:	52800006 	mov	w6, #0x0                   	// #0
/home/zhaoxuyang/Codes/rspi-demo/repo-tsu/optee_os/lib/libutils/ext/snprintk.c:553
    1d84:	52800001 	mov	w1, #0x0                   	// #0
/home/zhaoxuyang/Codes/rspi-demo/repo-tsu/optee_os/lib/libutils/ext/snprintk.c:554
    1d88:	140000fa 	b	2170 <kprintf.constprop.0+0x6c0>
/home/zhaoxuyang/Codes/rspi-demo/repo-tsu/optee_os/lib/libutils/ext/snprintk.c:381
    1d8c:	11002094 	add	w20, w4, #0x8
    1d90:	7100029f 	cmp	w20, #0x0
    1d94:	5400008d 	b.le	1da4 <kprintf.constprop.0+0x2f4>
    1d98:	91002c73 	add	x19, x3, #0xb
    1d9c:	927df273 	and	x19, x19, #0xfffffffffffffff8
    1da0:	17fffff4 	b	1d70 <kprintf.constprop.0+0x2c0>
    1da4:	aa0303f3 	mov	x19, x3
    1da8:	8b24c343 	add	x3, x26, w4, sxtw
    1dac:	17fffff1 	b	1d70 <kprintf.constprop.0+0x2c0>
/home/zhaoxuyang/Codes/rspi-demo/repo-tsu/optee_os/lib/libutils/ext/snprintk.c:386
    1db0:	321c02b5 	orr	w21, w21, #0x10
/home/zhaoxuyang/Codes/rspi-demo/repo-tsu/optee_os/lib/libutils/ext/snprintk.c:390
    1db4:	363802f5 	tbz	w21, #7, 1e10 <kprintf.constprop.0+0x360>
    1db8:	37f80424 	tbnz	w4, #31, 1e3c <kprintf.constprop.0+0x38c>
    1dbc:	91003c73 	add	x19, x3, #0xf
    1dc0:	2a0403f4 	mov	w20, w4
    1dc4:	927df273 	and	x19, x19, #0xfffffffffffffff8
    1dc8:	f9400062 	ldr	x2, [x3]
/home/zhaoxuyang/Codes/rspi-demo/repo-tsu/optee_os/lib/libutils/ext/snprintk.c:391
    1dcc:	b6f82e02 	tbz	x2, #63, 238c <kprintf.constprop.0+0x8dc>
/home/zhaoxuyang/Codes/rspi-demo/repo-tsu/optee_os/lib/libutils/ext/snprintk.c:392
    1dd0:	cb0203e2 	neg	x2, x2
/home/zhaoxuyang/Codes/rspi-demo/repo-tsu/optee_os/lib/libutils/ext/snprintk.c:395
    1dd4:	52800020 	mov	w0, #0x1                   	// #1
/home/zhaoxuyang/Codes/rspi-demo/repo-tsu/optee_os/lib/libutils/ext/snprintk.c:393
    1dd8:	528005a1 	mov	w1, #0x2d                  	// #45
/home/zhaoxuyang/Codes/rspi-demo/repo-tsu/optee_os/lib/libutils/ext/snprintk.c:494
    1ddc:	310004bf 	cmn	w5, #0x1
    1de0:	54003a21 	b.ne	2524 <kprintf.constprop.0+0xa74>  // b.any
/home/zhaoxuyang/Codes/rspi-demo/repo-tsu/optee_os/lib/libutils/ext/snprintk.c:509
    1de4:	7100041f 	cmp	w0, #0x1
    1de8:	54002d60 	b.eq	2394 <kprintf.constprop.0+0x8e4>  // b.none
    1dec:	7100081f 	cmp	w0, #0x2
    1df0:	54000ea1 	b.ne	1fc4 <kprintf.constprop.0+0x514>  // b.any
/home/zhaoxuyang/Codes/rspi-demo/repo-tsu/optee_os/lib/libutils/ext/snprintk.c:502
    1df4:	91009583 	add	x3, x12, #0x25
/home/zhaoxuyang/Codes/rspi-demo/repo-tsu/optee_os/lib/libutils/ext/snprintk.c:531
    1df8:	92400c40 	and	x0, x2, #0xf
/home/zhaoxuyang/Codes/rspi-demo/repo-tsu/optee_os/lib/libutils/ext/snprintk.c:532
    1dfc:	d344fc42 	lsr	x2, x2, #4
/home/zhaoxuyang/Codes/rspi-demo/repo-tsu/optee_os/lib/libutils/ext/snprintk.c:531
    1e00:	38606ae0 	ldrb	w0, [x23, x0]
    1e04:	381ffc60 	strb	w0, [x3, #-1]!
/home/zhaoxuyang/Codes/rspi-demo/repo-tsu/optee_os/lib/libutils/ext/snprintk.c:533
    1e08:	b5ffff82 	cbnz	x2, 1df8 <kprintf.constprop.0+0x348>
    1e0c:	1400007b 	b	1ff8 <kprintf.constprop.0+0x548>
/home/zhaoxuyang/Codes/rspi-demo/repo-tsu/optee_os/lib/libutils/ext/snprintk.c:390
    1e10:	3747fd55 	tbnz	w21, #8, 1db8 <kprintf.constprop.0+0x308>
    1e14:	374ffd35 	tbnz	w21, #9, 1db8 <kprintf.constprop.0+0x308>
    1e18:	372ffd15 	tbnz	w21, #5, 1db8 <kprintf.constprop.0+0x308>
    1e1c:	3727fcf5 	tbnz	w21, #4, 1db8 <kprintf.constprop.0+0x308>
    1e20:	36300335 	tbz	w21, #6, 1e84 <kprintf.constprop.0+0x3d4>
    1e24:	37f801e4 	tbnz	w4, #31, 1e60 <kprintf.constprop.0+0x3b0>
    1e28:	91002c73 	add	x19, x3, #0xb
    1e2c:	2a0403f4 	mov	w20, w4
    1e30:	927df273 	and	x19, x19, #0xfffffffffffffff8
    1e34:	79800062 	ldrsh	x2, [x3]
    1e38:	17ffffe5 	b	1dcc <kprintf.constprop.0+0x31c>
    1e3c:	11002094 	add	w20, w4, #0x8
    1e40:	7100029f 	cmp	w20, #0x0
    1e44:	5400008d 	b.le	1e54 <kprintf.constprop.0+0x3a4>
    1e48:	91003c73 	add	x19, x3, #0xf
    1e4c:	927df273 	and	x19, x19, #0xfffffffffffffff8
    1e50:	17ffffde 	b	1dc8 <kprintf.constprop.0+0x318>
    1e54:	aa0303f3 	mov	x19, x3
    1e58:	8b24c343 	add	x3, x26, w4, sxtw
    1e5c:	17ffffdb 	b	1dc8 <kprintf.constprop.0+0x318>
    1e60:	11002094 	add	w20, w4, #0x8
    1e64:	7100029f 	cmp	w20, #0x0
    1e68:	5400008d 	b.le	1e78 <kprintf.constprop.0+0x3c8>
    1e6c:	91002c73 	add	x19, x3, #0xb
    1e70:	927df273 	and	x19, x19, #0xfffffffffffffff8
    1e74:	17fffff0 	b	1e34 <kprintf.constprop.0+0x384>
    1e78:	aa0303f3 	mov	x19, x3
    1e7c:	8b24c343 	add	x3, x26, w4, sxtw
    1e80:	17ffffed 	b	1e34 <kprintf.constprop.0+0x384>
    1e84:	37f800c4 	tbnz	w4, #31, 1e9c <kprintf.constprop.0+0x3ec>
    1e88:	91002c73 	add	x19, x3, #0xb
    1e8c:	2a0403f4 	mov	w20, w4
    1e90:	927df273 	and	x19, x19, #0xfffffffffffffff8
    1e94:	b9800062 	ldrsw	x2, [x3]
    1e98:	17ffffcd 	b	1dcc <kprintf.constprop.0+0x31c>
    1e9c:	11002094 	add	w20, w4, #0x8
    1ea0:	7100029f 	cmp	w20, #0x0
    1ea4:	5400008d 	b.le	1eb4 <kprintf.constprop.0+0x404>
    1ea8:	91002c73 	add	x19, x3, #0xb
    1eac:	927df273 	and	x19, x19, #0xfffffffffffffff8
    1eb0:	17fffff9 	b	1e94 <kprintf.constprop.0+0x3e4>
    1eb4:	aa0303f3 	mov	x19, x3
    1eb8:	8b24c343 	add	x3, x26, w4, sxtw
    1ebc:	17fffff6 	b	1e94 <kprintf.constprop.0+0x3e4>
/home/zhaoxuyang/Codes/rspi-demo/repo-tsu/optee_os/lib/libutils/ext/snprintk.c:398
    1ec0:	36380135 	tbz	w21, #7, 1ee4 <kprintf.constprop.0+0x434>
/home/zhaoxuyang/Codes/rspi-demo/repo-tsu/optee_os/lib/libutils/ext/snprintk.c:407
    1ec4:	37f80284 	tbnz	w4, #31, 1f14 <kprintf.constprop.0+0x464>
    1ec8:	91003c73 	add	x19, x3, #0xf
    1ecc:	2a0403f4 	mov	w20, w4
    1ed0:	927df273 	and	x19, x19, #0xfffffffffffffff8
    1ed4:	f9400060 	ldr	x0, [x3]
    1ed8:	93407f21 	sxtw	x1, w25
    1edc:	f9000001 	str	x1, [x0]
    1ee0:	17ffff0b 	b	1b0c <kprintf.constprop.0+0x5c>
/home/zhaoxuyang/Codes/rspi-demo/repo-tsu/optee_os/lib/libutils/ext/snprintk.c:400
    1ee4:	3747ff15 	tbnz	w21, #8, 1ec4 <kprintf.constprop.0+0x414>
/home/zhaoxuyang/Codes/rspi-demo/repo-tsu/optee_os/lib/libutils/ext/snprintk.c:402
    1ee8:	374ffef5 	tbnz	w21, #9, 1ec4 <kprintf.constprop.0+0x414>
/home/zhaoxuyang/Codes/rspi-demo/repo-tsu/optee_os/lib/libutils/ext/snprintk.c:404
    1eec:	372ffed5 	tbnz	w21, #5, 1ec4 <kprintf.constprop.0+0x414>
/home/zhaoxuyang/Codes/rspi-demo/repo-tsu/optee_os/lib/libutils/ext/snprintk.c:406
    1ef0:	3727feb5 	tbnz	w21, #4, 1ec4 <kprintf.constprop.0+0x414>
/home/zhaoxuyang/Codes/rspi-demo/repo-tsu/optee_os/lib/libutils/ext/snprintk.c:408
    1ef4:	36300355 	tbz	w21, #6, 1f5c <kprintf.constprop.0+0x4ac>
/home/zhaoxuyang/Codes/rspi-demo/repo-tsu/optee_os/lib/libutils/ext/snprintk.c:409
    1ef8:	37f80204 	tbnz	w4, #31, 1f38 <kprintf.constprop.0+0x488>
    1efc:	91003c73 	add	x19, x3, #0xf
    1f00:	2a0403f4 	mov	w20, w4
    1f04:	927df273 	and	x19, x19, #0xfffffffffffffff8
    1f08:	f9400060 	ldr	x0, [x3]
    1f0c:	79000019 	strh	w25, [x0]
    1f10:	17fffeff 	b	1b0c <kprintf.constprop.0+0x5c>
/home/zhaoxuyang/Codes/rspi-demo/repo-tsu/optee_os/lib/libutils/ext/snprintk.c:407
    1f14:	11002094 	add	w20, w4, #0x8
    1f18:	7100029f 	cmp	w20, #0x0
    1f1c:	5400008d 	b.le	1f2c <kprintf.constprop.0+0x47c>
    1f20:	91003c73 	add	x19, x3, #0xf
    1f24:	927df273 	and	x19, x19, #0xfffffffffffffff8
    1f28:	17ffffeb 	b	1ed4 <kprintf.constprop.0+0x424>
    1f2c:	aa0303f3 	mov	x19, x3
    1f30:	8b24c343 	add	x3, x26, w4, sxtw
    1f34:	17ffffe8 	b	1ed4 <kprintf.constprop.0+0x424>
/home/zhaoxuyang/Codes/rspi-demo/repo-tsu/optee_os/lib/libutils/ext/snprintk.c:409
    1f38:	11002094 	add	w20, w4, #0x8
    1f3c:	7100029f 	cmp	w20, #0x0
    1f40:	5400008d 	b.le	1f50 <kprintf.constprop.0+0x4a0>
    1f44:	91003c73 	add	x19, x3, #0xf
    1f48:	927df273 	and	x19, x19, #0xfffffffffffffff8
    1f4c:	17ffffef 	b	1f08 <kprintf.constprop.0+0x458>
    1f50:	aa0303f3 	mov	x19, x3
    1f54:	8b24c343 	add	x3, x26, w4, sxtw
    1f58:	17ffffec 	b	1f08 <kprintf.constprop.0+0x458>
/home/zhaoxuyang/Codes/rspi-demo/repo-tsu/optee_os/lib/libutils/ext/snprintk.c:411
    1f5c:	37f800e4 	tbnz	w4, #31, 1f78 <kprintf.constprop.0+0x4c8>
    1f60:	91003c73 	add	x19, x3, #0xf
    1f64:	2a0403f4 	mov	w20, w4
    1f68:	927df273 	and	x19, x19, #0xfffffffffffffff8
    1f6c:	f9400060 	ldr	x0, [x3]
    1f70:	b9000019 	str	w25, [x0]
    1f74:	17fffee6 	b	1b0c <kprintf.constprop.0+0x5c>
    1f78:	11002094 	add	w20, w4, #0x8
    1f7c:	7100029f 	cmp	w20, #0x0
    1f80:	5400008d 	b.le	1f90 <kprintf.constprop.0+0x4e0>
    1f84:	91003c73 	add	x19, x3, #0xf
    1f88:	927df273 	and	x19, x19, #0xfffffffffffffff8
    1f8c:	17fffff8 	b	1f6c <kprintf.constprop.0+0x4bc>
    1f90:	aa0303f3 	mov	x19, x3
    1f94:	8b24c343 	add	x3, x26, w4, sxtw
    1f98:	17fffff5 	b	1f6c <kprintf.constprop.0+0x4bc>
/home/zhaoxuyang/Codes/rspi-demo/repo-tsu/optee_os/lib/libutils/ext/snprintk.c:414
    1f9c:	321c02b5 	orr	w21, w21, #0x10
/home/zhaoxuyang/Codes/rspi-demo/repo-tsu/optee_os/lib/libutils/ext/snprintk.c:417
    1fa0:	36380355 	tbz	w21, #7, 2008 <kprintf.constprop.0+0x558>
    1fa4:	37f80484 	tbnz	w4, #31, 2034 <kprintf.constprop.0+0x584>
    1fa8:	91003c73 	add	x19, x3, #0xf
    1fac:	2a0403f4 	mov	w20, w4
    1fb0:	927df273 	and	x19, x19, #0xfffffffffffffff8
    1fb4:	f9400062 	ldr	x2, [x3]
/home/zhaoxuyang/Codes/rspi-demo/repo-tsu/optee_os/lib/libutils/ext/snprintk.c:494
    1fb8:	310004bf 	cmn	w5, #0x1
    1fbc:	52800001 	mov	w1, #0x0                   	// #0
    1fc0:	54002b01 	b.ne	2520 <kprintf.constprop.0+0xa70>  // b.any
/home/zhaoxuyang/Codes/rspi-demo/repo-tsu/optee_os/lib/libutils/ext/snprintk.c:502
    1fc4:	91009583 	add	x3, x12, #0x25
/home/zhaoxuyang/Codes/rspi-demo/repo-tsu/optee_os/lib/libutils/ext/snprintk.c:512
    1fc8:	12000840 	and	w0, w2, #0x7
    1fcc:	aa0303e4 	mov	x4, x3
    1fd0:	1100c000 	add	w0, w0, #0x30
    1fd4:	381ffc60 	strb	w0, [x3, #-1]!
/home/zhaoxuyang/Codes/rspi-demo/repo-tsu/optee_os/lib/libutils/ext/snprintk.c:513
    1fd8:	d343fc42 	lsr	x2, x2, #3
/home/zhaoxuyang/Codes/rspi-demo/repo-tsu/optee_os/lib/libutils/ext/snprintk.c:514
    1fdc:	b5ffff62 	cbnz	x2, 1fc8 <kprintf.constprop.0+0x518>
/home/zhaoxuyang/Codes/rspi-demo/repo-tsu/optee_os/lib/libutils/ext/snprintk.c:516
    1fe0:	360000d5 	tbz	w21, #0, 1ff8 <kprintf.constprop.0+0x548>
    1fe4:	7100c01f 	cmp	w0, #0x30
    1fe8:	54000080 	b.eq	1ff8 <kprintf.constprop.0+0x548>  // b.none
/home/zhaoxuyang/Codes/rspi-demo/repo-tsu/optee_os/lib/libutils/ext/snprintk.c:517
    1fec:	52800600 	mov	w0, #0x30                  	// #48
    1ff0:	381ff060 	sturb	w0, [x3, #-1]
    1ff4:	d1000883 	sub	x3, x4, #0x2
/home/zhaoxuyang/Codes/rspi-demo/repo-tsu/optee_os/lib/libutils/ext/snprintk.c:543
    1ff8:	91009580 	add	x0, x12, #0x25
    1ffc:	2a0503e6 	mov	w6, w5
    2000:	4b030005 	sub	w5, w0, w3
    2004:	1400005b 	b	2170 <kprintf.constprop.0+0x6c0>
/home/zhaoxuyang/Codes/rspi-demo/repo-tsu/optee_os/lib/libutils/ext/snprintk.c:417
    2008:	3747fcf5 	tbnz	w21, #8, 1fa4 <kprintf.constprop.0+0x4f4>
    200c:	374ffcd5 	tbnz	w21, #9, 1fa4 <kprintf.constprop.0+0x4f4>
    2010:	372ffcb5 	tbnz	w21, #5, 1fa4 <kprintf.constprop.0+0x4f4>
    2014:	3727fc95 	tbnz	w21, #4, 1fa4 <kprintf.constprop.0+0x4f4>
    2018:	36300335 	tbz	w21, #6, 207c <kprintf.constprop.0+0x5cc>
    201c:	37f801e4 	tbnz	w4, #31, 2058 <kprintf.constprop.0+0x5a8>
    2020:	91002c73 	add	x19, x3, #0xb
    2024:	2a0403f4 	mov	w20, w4
    2028:	927df273 	and	x19, x19, #0xfffffffffffffff8
    202c:	79400062 	ldrh	w2, [x3]
    2030:	17ffffe2 	b	1fb8 <kprintf.constprop.0+0x508>
    2034:	11002094 	add	w20, w4, #0x8
    2038:	7100029f 	cmp	w20, #0x0
    203c:	5400008d 	b.le	204c <kprintf.constprop.0+0x59c>
    2040:	91003c73 	add	x19, x3, #0xf
    2044:	927df273 	and	x19, x19, #0xfffffffffffffff8
    2048:	17ffffdb 	b	1fb4 <kprintf.constprop.0+0x504>
    204c:	aa0303f3 	mov	x19, x3
    2050:	8b24c343 	add	x3, x26, w4, sxtw
    2054:	17ffffd8 	b	1fb4 <kprintf.constprop.0+0x504>
    2058:	11002094 	add	w20, w4, #0x8
    205c:	7100029f 	cmp	w20, #0x0
    2060:	5400008d 	b.le	2070 <kprintf.constprop.0+0x5c0>
    2064:	91002c73 	add	x19, x3, #0xb
    2068:	927df273 	and	x19, x19, #0xfffffffffffffff8
    206c:	17fffff0 	b	202c <kprintf.constprop.0+0x57c>
    2070:	aa0303f3 	mov	x19, x3
    2074:	8b24c343 	add	x3, x26, w4, sxtw
    2078:	17ffffed 	b	202c <kprintf.constprop.0+0x57c>
    207c:	37f800c4 	tbnz	w4, #31, 2094 <kprintf.constprop.0+0x5e4>
    2080:	91002c73 	add	x19, x3, #0xb
    2084:	2a0403f4 	mov	w20, w4
    2088:	927df273 	and	x19, x19, #0xfffffffffffffff8
    208c:	b9400062 	ldr	w2, [x3]
    2090:	17ffffca 	b	1fb8 <kprintf.constprop.0+0x508>
    2094:	11002094 	add	w20, w4, #0x8
    2098:	7100029f 	cmp	w20, #0x0
    209c:	5400008d 	b.le	20ac <kprintf.constprop.0+0x5fc>
    20a0:	91002c73 	add	x19, x3, #0xb
    20a4:	927df273 	and	x19, x19, #0xfffffffffffffff8
    20a8:	17fffff9 	b	208c <kprintf.constprop.0+0x5dc>
    20ac:	aa0303f3 	mov	x19, x3
    20b0:	8b24c343 	add	x3, x26, w4, sxtw
    20b4:	17fffff6 	b	208c <kprintf.constprop.0+0x5dc>
/home/zhaoxuyang/Codes/rspi-demo/repo-tsu/optee_os/lib/libutils/ext/snprintk.c:421
    20b8:	b940a3e0 	ldr	w0, [sp, #160]
    20bc:	34000c80 	cbz	w0, 224c <kprintf.constprop.0+0x79c>
    20c0:	39400360 	ldrb	w0, [x27]
    20c4:	7101541f 	cmp	w0, #0x55
    20c8:	54000c21 	b.ne	224c <kprintf.constprop.0+0x79c>  // b.any
    20cc:	39400760 	ldrb	w0, [x27, #1]
    20d0:	7101b01f 	cmp	w0, #0x6c
    20d4:	54000bc1 	b.ne	224c <kprintf.constprop.0+0x79c>  // b.any
/home/zhaoxuyang/Codes/rspi-demo/repo-tsu/optee_os/lib/libutils/ext/snprintk.c:426
    20d8:	91000b7b 	add	x27, x27, #0x2
/home/zhaoxuyang/Codes/rspi-demo/repo-tsu/optee_os/lib/libutils/ext/snprintk.c:427
    20dc:	37f80a64 	tbnz	w4, #31, 2228 <kprintf.constprop.0+0x778>
    20e0:	91003c73 	add	x19, x3, #0xf
    20e4:	2a0403f4 	mov	w20, w4
    20e8:	927df273 	and	x19, x19, #0xfffffffffffffff8
    20ec:	f9400060 	ldr	x0, [x3]
uuid2str():
/home/zhaoxuyang/Codes/rspi-demo/repo-tsu/optee_os/lib/libutils/ext/snprintk.c:229
    20f0:	b0000082 	adrp	x2, 13000 <SB5+0x84>
    20f4:	91173442 	add	x2, x2, #0x5cd
    20f8:	f9004fec 	str	x12, [sp, #152]
    20fc:	b900a7ea 	str	w10, [sp, #164]
    2100:	39403c01 	ldrb	w1, [x0, #15]
    2104:	39402006 	ldrb	w6, [x0, #8]
    2108:	79400c05 	ldrh	w5, [x0, #6]
    210c:	39402407 	ldrb	w7, [x0, #9]
    2110:	79400804 	ldrh	w4, [x0, #4]
    2114:	b9002be1 	str	w1, [sp, #40]
    2118:	f90057e8 	str	x8, [sp, #168]
    211c:	39403801 	ldrb	w1, [x0, #14]
    2120:	b90023e1 	str	w1, [sp, #32]
    2124:	39403401 	ldrb	w1, [x0, #13]
    2128:	b9001be1 	str	w1, [sp, #24]
    212c:	39403001 	ldrb	w1, [x0, #12]
    2130:	b90013e1 	str	w1, [sp, #16]
    2134:	39402c01 	ldrb	w1, [x0, #11]
    2138:	b9000be1 	str	w1, [sp, #8]
    213c:	39402801 	ldrb	w1, [x0, #10]
    2140:	b90003e1 	str	w1, [sp]
    2144:	d28004a1 	mov	x1, #0x25                  	// #37
    2148:	b9400003 	ldr	w3, [x0]
    214c:	aa0c03e0 	mov	x0, x12
    2150:	97fffe3b 	bl	1a3c <snprintk>
    2154:	2a0003e5 	mov	w5, w0
kprintf():
/home/zhaoxuyang/Codes/rspi-demo/repo-tsu/optee_os/lib/libutils/ext/snprintk.c:429
    2158:	f9404fec 	ldr	x12, [sp, #152]
/home/zhaoxuyang/Codes/rspi-demo/repo-tsu/optee_os/lib/libutils/ext/snprintk.c:291
    215c:	52800006 	mov	w6, #0x0                   	// #0
/home/zhaoxuyang/Codes/rspi-demo/repo-tsu/optee_os/lib/libutils/ext/snprintk.c:431
    2160:	b940a7ea 	ldr	w10, [sp, #164]
/home/zhaoxuyang/Codes/rspi-demo/repo-tsu/optee_os/lib/libutils/ext/snprintk.c:430
    2164:	52800001 	mov	w1, #0x0                   	// #0
/home/zhaoxuyang/Codes/rspi-demo/repo-tsu/optee_os/lib/libutils/ext/snprintk.c:431
    2168:	f94057e8 	ldr	x8, [sp, #168]
/home/zhaoxuyang/Codes/rspi-demo/repo-tsu/optee_os/lib/libutils/ext/snprintk.c:429
    216c:	aa0c03e3 	mov	x3, x12
/home/zhaoxuyang/Codes/rspi-demo/repo-tsu/optee_os/lib/libutils/ext/snprintk.c:571
    2170:	6b0500df 	cmp	w6, w5
    2174:	1a85a0c4 	csel	w4, w6, w5, ge  // ge = tcont
/home/zhaoxuyang/Codes/rspi-demo/repo-tsu/optee_os/lib/libutils/ext/snprintk.c:572
    2178:	340020e1 	cbz	w1, 2594 <kprintf.constprop.0+0xae4>
/home/zhaoxuyang/Codes/rspi-demo/repo-tsu/optee_os/lib/libutils/ext/snprintk.c:573
    217c:	11000484 	add	w4, w4, #0x1
/home/zhaoxuyang/Codes/rspi-demo/repo-tsu/optee_os/lib/libutils/ext/snprintk.c:578
    2180:	6b0a009f 	cmp	w4, w10
    2184:	1a8aa080 	csel	w0, w4, w10, ge  // ge = tcont
    2188:	0b000339 	add	w25, w25, w0
/home/zhaoxuyang/Codes/rspi-demo/repo-tsu/optee_os/lib/libutils/ext/snprintk.c:581
    218c:	52808080 	mov	w0, #0x404                 	// #1028
    2190:	6a0002a0 	ands	w0, w21, w0
    2194:	540000a1 	b.ne	21a8 <kprintf.constprop.0+0x6f8>  // b.any
/home/zhaoxuyang/Codes/rspi-demo/repo-tsu/optee_os/lib/libutils/ext/snprintk.c:582
    2198:	4b040147 	sub	w7, w10, w4
/home/zhaoxuyang/Codes/rspi-demo/repo-tsu/optee_os/lib/libutils/ext/snprintk.c:584
    219c:	52800402 	mov	w2, #0x20                  	// #32
/home/zhaoxuyang/Codes/rspi-demo/repo-tsu/optee_os/lib/libutils/ext/snprintk.c:583
    21a0:	710000ff 	cmp	w7, #0x0
    21a4:	54001fec 	b.gt	25a0 <kprintf.constprop.0+0xaf0>
/home/zhaoxuyang/Codes/rspi-demo/repo-tsu/optee_os/lib/libutils/ext/snprintk.c:588
    21a8:	340020a1 	cbz	w1, 25bc <kprintf.constprop.0+0xb0c>
/home/zhaoxuyang/Codes/rspi-demo/repo-tsu/optee_os/lib/libutils/ext/snprintk.c:589
    21ac:	b40000b6 	cbz	x22, 21c0 <kprintf.constprop.0+0x710>
    21b0:	f100011f 	cmp	x8, #0x0
    21b4:	fa561302 	ccmp	x24, x22, #0x2, ne  // ne = any
    21b8:	54000049 	b.ls	21c0 <kprintf.constprop.0+0x710>  // b.plast
    21bc:	380016c1 	strb	w1, [x22], #1
/home/zhaoxuyang/Codes/rspi-demo/repo-tsu/optee_os/lib/libutils/ext/snprintk.c:596
    21c0:	7110001f 	cmp	w0, #0x400
    21c4:	540000a1 	b.ne	21d8 <kprintf.constprop.0+0x728>  // b.any
/home/zhaoxuyang/Codes/rspi-demo/repo-tsu/optee_os/lib/libutils/ext/snprintk.c:597
    21c8:	4b040140 	sub	w0, w10, w4
/home/zhaoxuyang/Codes/rspi-demo/repo-tsu/optee_os/lib/libutils/ext/snprintk.c:599
    21cc:	52800601 	mov	w1, #0x30                  	// #48
/home/zhaoxuyang/Codes/rspi-demo/repo-tsu/optee_os/lib/libutils/ext/snprintk.c:598
    21d0:	7100001f 	cmp	w0, #0x0
    21d4:	5400218c 	b.gt	2604 <kprintf.constprop.0+0xb54>
/home/zhaoxuyang/Codes/rspi-demo/repo-tsu/optee_os/lib/libutils/ext/snprintk.c:603
    21d8:	4b0500c6 	sub	w6, w6, w5
/home/zhaoxuyang/Codes/rspi-demo/repo-tsu/optee_os/lib/libutils/ext/snprintk.c:605
    21dc:	52800600 	mov	w0, #0x30                  	// #48
/home/zhaoxuyang/Codes/rspi-demo/repo-tsu/optee_os/lib/libutils/ext/snprintk.c:604
    21e0:	710000df 	cmp	w6, #0x0
    21e4:	540021ec 	b.gt	2620 <kprintf.constprop.0+0xb70>
    21e8:	2a0503e5 	mov	w5, w5
    21ec:	d2800001 	mov	x1, #0x0                   	// #0
/home/zhaoxuyang/Codes/rspi-demo/repo-tsu/optee_os/lib/libutils/ext/snprintk.c:608
    21f0:	eb05003f 	cmp	x1, x5
    21f4:	54002241 	b.ne	263c <kprintf.constprop.0+0xb8c>  // b.any
/home/zhaoxuyang/Codes/rspi-demo/repo-tsu/optee_os/lib/libutils/ext/snprintk.c:611
    21f8:	3617c8b5 	tbz	w21, #2, 1b0c <kprintf.constprop.0+0x5c>
/home/zhaoxuyang/Codes/rspi-demo/repo-tsu/optee_os/lib/libutils/ext/snprintk.c:612
    21fc:	4b04014a 	sub	w10, w10, w4
/home/zhaoxuyang/Codes/rspi-demo/repo-tsu/optee_os/lib/libutils/ext/snprintk.c:614
    2200:	52800400 	mov	w0, #0x20                  	// #32
/home/zhaoxuyang/Codes/rspi-demo/repo-tsu/optee_os/lib/libutils/ext/snprintk.c:613
    2204:	7100015f 	cmp	w10, #0x0
    2208:	54ffc82d 	b.le	1b0c <kprintf.constprop.0+0x5c>
/home/zhaoxuyang/Codes/rspi-demo/repo-tsu/optee_os/lib/libutils/ext/snprintk.c:614
    220c:	b40000b6 	cbz	x22, 2220 <kprintf.constprop.0+0x770>
    2210:	f100011f 	cmp	x8, #0x0
    2214:	fa561302 	ccmp	x24, x22, #0x2, ne  // ne = any
    2218:	54000049 	b.ls	2220 <kprintf.constprop.0+0x770>  // b.plast
    221c:	380016c0 	strb	w0, [x22], #1
    2220:	5100054a 	sub	w10, w10, #0x1
    2224:	17fffff8 	b	2204 <kprintf.constprop.0+0x754>
/home/zhaoxuyang/Codes/rspi-demo/repo-tsu/optee_os/lib/libutils/ext/snprintk.c:427
    2228:	11002094 	add	w20, w4, #0x8
    222c:	7100029f 	cmp	w20, #0x0
    2230:	5400008d 	b.le	2240 <kprintf.constprop.0+0x790>
    2234:	91003c73 	add	x19, x3, #0xf
    2238:	927df273 	and	x19, x19, #0xfffffffffffffff8
    223c:	17ffffac 	b	20ec <kprintf.constprop.0+0x63c>
    2240:	aa0303f3 	mov	x19, x3
    2244:	8b24c343 	add	x3, x26, w4, sxtw
    2248:	17ffffa9 	b	20ec <kprintf.constprop.0+0x63c>
/home/zhaoxuyang/Codes/rspi-demo/repo-tsu/optee_os/lib/libutils/ext/snprintk.c:441
    224c:	37f801e4 	tbnz	w4, #31, 2288 <kprintf.constprop.0+0x7d8>
    2250:	91003c73 	add	x19, x3, #0xf
    2254:	2a0403f4 	mov	w20, w4
    2258:	927df273 	and	x19, x19, #0xfffffffffffffff8
/home/zhaoxuyang/Codes/rspi-demo/repo-tsu/optee_os/lib/libutils/ext/snprintk.c:443
    225c:	90000097 	adrp	x23, 12000 <iv_test_data+0x98>
    2260:	91174af7 	add	x23, x23, #0x5d2
/home/zhaoxuyang/Codes/rspi-demo/repo-tsu/optee_os/lib/libutils/ext/snprintk.c:441
    2264:	f9400062 	ldr	x2, [x3]
/home/zhaoxuyang/Codes/rspi-demo/repo-tsu/optee_os/lib/libutils/ext/snprintk.c:444
    2268:	321f02b5 	orr	w21, w21, #0x2
/home/zhaoxuyang/Codes/rspi-demo/repo-tsu/optee_os/lib/libutils/ext/snprintk.c:443
    226c:	910046f7 	add	x23, x23, #0x11
/home/zhaoxuyang/Codes/rspi-demo/repo-tsu/optee_os/lib/libutils/ext/snprintk.c:445
    2270:	52800f1c 	mov	w28, #0x78                  	// #120
/home/zhaoxuyang/Codes/rspi-demo/repo-tsu/optee_os/lib/libutils/ext/snprintk.c:494
    2274:	310004bf 	cmn	w5, #0x1
    2278:	52800001 	mov	w1, #0x0                   	// #0
    227c:	54ffdbc0 	b.eq	1df4 <kprintf.constprop.0+0x344>  // b.none
    2280:	52800040 	mov	w0, #0x2                   	// #2
    2284:	140000a8 	b	2524 <kprintf.constprop.0+0xa74>
/home/zhaoxuyang/Codes/rspi-demo/repo-tsu/optee_os/lib/libutils/ext/snprintk.c:441
    2288:	11002094 	add	w20, w4, #0x8
    228c:	7100029f 	cmp	w20, #0x0
    2290:	5400008d 	b.le	22a0 <kprintf.constprop.0+0x7f0>
    2294:	91003c73 	add	x19, x3, #0xf
    2298:	927df273 	and	x19, x19, #0xfffffffffffffff8
    229c:	17fffff0 	b	225c <kprintf.constprop.0+0x7ac>
    22a0:	aa0303f3 	mov	x19, x3
    22a4:	8b24c343 	add	x3, x26, w4, sxtw
    22a8:	17ffffed 	b	225c <kprintf.constprop.0+0x7ac>
/home/zhaoxuyang/Codes/rspi-demo/repo-tsu/optee_os/lib/libutils/ext/snprintk.c:448
    22ac:	37f80364 	tbnz	w4, #31, 2318 <kprintf.constprop.0+0x868>
    22b0:	91003c73 	add	x19, x3, #0xf
    22b4:	2a0403f4 	mov	w20, w4
    22b8:	927df273 	and	x19, x19, #0xfffffffffffffff8
    22bc:	f9400063 	ldr	x3, [x3]
    22c0:	b5000063 	cbnz	x3, 22cc <kprintf.constprop.0+0x81c>
/home/zhaoxuyang/Codes/rspi-demo/repo-tsu/optee_os/lib/libutils/ext/snprintk.c:450
    22c4:	b0000083 	adrp	x3, 13000 <SB5+0x84>
    22c8:	91171863 	add	x3, x3, #0x5c6
/home/zhaoxuyang/Codes/rspi-demo/repo-tsu/optee_os/lib/libutils/ext/snprintk.c:451
    22cc:	310004bf 	cmn	w5, #0x1
    22d0:	54000360 	b.eq	233c <kprintf.constprop.0+0x88c>  // b.none
/home/zhaoxuyang/Codes/rspi-demo/repo-tsu/optee_os/lib/libutils/ext/snprintk.c:457
    22d4:	93407ca2 	sxtw	x2, w5
    22d8:	aa0303e0 	mov	x0, x3
    22dc:	52800001 	mov	w1, #0x0                   	// #0
    22e0:	f9004fe3 	str	x3, [sp, #152]
    22e4:	2914abe5 	stp	w5, w10, [sp, #164]
    22e8:	a90b33e8 	stp	x8, x12, [sp, #176]
    22ec:	940000ef 	bl	26a8 <memchr>
/home/zhaoxuyang/Codes/rspi-demo/repo-tsu/optee_os/lib/libutils/ext/snprintk.c:459
    22f0:	2954abe5 	ldp	w5, w10, [sp, #164]
    22f4:	f9404fe3 	ldr	x3, [sp, #152]
    22f8:	a94b33e8 	ldp	x8, x12, [sp, #176]
    22fc:	b4000080 	cbz	x0, 230c <kprintf.constprop.0+0x85c>
/home/zhaoxuyang/Codes/rspi-demo/repo-tsu/optee_os/lib/libutils/ext/snprintk.c:460
    2300:	cb030000 	sub	x0, x0, x3
    2304:	6b0000bf 	cmp	w5, w0
    2308:	1a80d0a5 	csel	w5, w5, w0, le
/home/zhaoxuyang/Codes/rspi-demo/repo-tsu/optee_os/lib/libutils/ext/snprintk.c:291
    230c:	52800006 	mov	w6, #0x0                   	// #0
/home/zhaoxuyang/Codes/rspi-demo/repo-tsu/optee_os/lib/libutils/ext/snprintk.c:467
    2310:	52800001 	mov	w1, #0x0                   	// #0
    2314:	17ffff97 	b	2170 <kprintf.constprop.0+0x6c0>
/home/zhaoxuyang/Codes/rspi-demo/repo-tsu/optee_os/lib/libutils/ext/snprintk.c:448
    2318:	11002094 	add	w20, w4, #0x8
    231c:	7100029f 	cmp	w20, #0x0
    2320:	5400008d 	b.le	2330 <kprintf.constprop.0+0x880>
    2324:	91003c73 	add	x19, x3, #0xf
    2328:	927df273 	and	x19, x19, #0xfffffffffffffff8
    232c:	17ffffe4 	b	22bc <kprintf.constprop.0+0x80c>
    2330:	aa0303f3 	mov	x19, x3
    2334:	8b24c343 	add	x3, x26, w4, sxtw
    2338:	17ffffe1 	b	22bc <kprintf.constprop.0+0x80c>
/home/zhaoxuyang/Codes/rspi-demo/repo-tsu/optee_os/lib/libutils/ext/snprintk.c:466
    233c:	aa0303e0 	mov	x0, x3
    2340:	f9004fe3 	str	x3, [sp, #152]
    2344:	b900a7ea 	str	w10, [sp, #164]
    2348:	a90ab3e8 	stp	x8, x12, [sp, #168]
    234c:	97fffcd8 	bl	16ac <strlen>
    2350:	b940a7ea 	ldr	w10, [sp, #164]
    2354:	2a0003e5 	mov	w5, w0
/home/zhaoxuyang/Codes/rspi-demo/repo-tsu/optee_os/lib/libutils/ext/snprintk.c:291
    2358:	52800006 	mov	w6, #0x0                   	// #0
/home/zhaoxuyang/Codes/rspi-demo/repo-tsu/optee_os/lib/libutils/ext/snprintk.c:467
    235c:	52800001 	mov	w1, #0x0                   	// #0
    2360:	f9404fe3 	ldr	x3, [sp, #152]
    2364:	a94ab3e8 	ldp	x8, x12, [sp, #168]
    2368:	17ffff82 	b	2170 <kprintf.constprop.0+0x6c0>
/home/zhaoxuyang/Codes/rspi-demo/repo-tsu/optee_os/lib/libutils/ext/snprintk.c:470
    236c:	321c02b5 	orr	w21, w21, #0x10
/home/zhaoxuyang/Codes/rspi-demo/repo-tsu/optee_os/lib/libutils/ext/snprintk.c:473
    2370:	36380235 	tbz	w21, #7, 23b4 <kprintf.constprop.0+0x904>
    2374:	37f80364 	tbnz	w4, #31, 23e0 <kprintf.constprop.0+0x930>
    2378:	91003c73 	add	x19, x3, #0xf
    237c:	2a0403f4 	mov	w20, w4
    2380:	927df273 	and	x19, x19, #0xfffffffffffffff8
    2384:	f9400062 	ldr	x2, [x3]
/home/zhaoxuyang/Codes/rspi-demo/repo-tsu/optee_os/lib/libutils/ext/snprintk.c:488
    2388:	52800001 	mov	w1, #0x0                   	// #0
/home/zhaoxuyang/Codes/rspi-demo/repo-tsu/optee_os/lib/libutils/ext/snprintk.c:494
    238c:	310004bf 	cmn	w5, #0x1
    2390:	54000d81 	b.ne	2540 <kprintf.constprop.0+0xa90>  // b.any
/home/zhaoxuyang/Codes/rspi-demo/repo-tsu/optee_os/lib/libutils/ext/snprintk.c:502
    2394:	91009580 	add	x0, x12, #0x25
/home/zhaoxuyang/Codes/rspi-demo/repo-tsu/optee_os/lib/libutils/ext/snprintk.c:523
    2398:	d2800144 	mov	x4, #0xa                   	// #10
/home/zhaoxuyang/Codes/rspi-demo/repo-tsu/optee_os/lib/libutils/ext/snprintk.c:522
    239c:	d1000403 	sub	x3, x0, #0x1
    23a0:	f100245f 	cmp	x2, #0x9
    23a4:	54000d28 	b.hi	2548 <kprintf.constprop.0+0xa98>  // b.pmore
/home/zhaoxuyang/Codes/rspi-demo/repo-tsu/optee_os/lib/libutils/ext/snprintk.c:526
    23a8:	1100c042 	add	w2, w2, #0x30
    23ac:	381ff002 	sturb	w2, [x0, #-1]
/home/zhaoxuyang/Codes/rspi-demo/repo-tsu/optee_os/lib/libutils/ext/snprintk.c:527
    23b0:	17ffff12 	b	1ff8 <kprintf.constprop.0+0x548>
/home/zhaoxuyang/Codes/rspi-demo/repo-tsu/optee_os/lib/libutils/ext/snprintk.c:473
    23b4:	3747fe15 	tbnz	w21, #8, 2374 <kprintf.constprop.0+0x8c4>
    23b8:	374ffdf5 	tbnz	w21, #9, 2374 <kprintf.constprop.0+0x8c4>
    23bc:	372ffdd5 	tbnz	w21, #5, 2374 <kprintf.constprop.0+0x8c4>
    23c0:	3727fdb5 	tbnz	w21, #4, 2374 <kprintf.constprop.0+0x8c4>
    23c4:	36300335 	tbz	w21, #6, 2428 <kprintf.constprop.0+0x978>
    23c8:	37f801e4 	tbnz	w4, #31, 2404 <kprintf.constprop.0+0x954>
    23cc:	91002c73 	add	x19, x3, #0xb
    23d0:	2a0403f4 	mov	w20, w4
    23d4:	927df273 	and	x19, x19, #0xfffffffffffffff8
    23d8:	79400062 	ldrh	w2, [x3]
    23dc:	17ffffeb 	b	2388 <kprintf.constprop.0+0x8d8>
    23e0:	11002094 	add	w20, w4, #0x8
    23e4:	7100029f 	cmp	w20, #0x0
    23e8:	5400008d 	b.le	23f8 <kprintf.constprop.0+0x948>
    23ec:	91003c73 	add	x19, x3, #0xf
    23f0:	927df273 	and	x19, x19, #0xfffffffffffffff8
    23f4:	17ffffe4 	b	2384 <kprintf.constprop.0+0x8d4>
    23f8:	aa0303f3 	mov	x19, x3
    23fc:	8b24c343 	add	x3, x26, w4, sxtw
    2400:	17ffffe1 	b	2384 <kprintf.constprop.0+0x8d4>
    2404:	11002094 	add	w20, w4, #0x8
    2408:	7100029f 	cmp	w20, #0x0
    240c:	5400008d 	b.le	241c <kprintf.constprop.0+0x96c>
    2410:	91002c73 	add	x19, x3, #0xb
    2414:	927df273 	and	x19, x19, #0xfffffffffffffff8
    2418:	17fffff0 	b	23d8 <kprintf.constprop.0+0x928>
    241c:	aa0303f3 	mov	x19, x3
    2420:	8b24c343 	add	x3, x26, w4, sxtw
    2424:	17ffffed 	b	23d8 <kprintf.constprop.0+0x928>
    2428:	37f800c4 	tbnz	w4, #31, 2440 <kprintf.constprop.0+0x990>
    242c:	91002c73 	add	x19, x3, #0xb
    2430:	2a0403f4 	mov	w20, w4
    2434:	927df273 	and	x19, x19, #0xfffffffffffffff8
    2438:	b9400062 	ldr	w2, [x3]
    243c:	17ffffd3 	b	2388 <kprintf.constprop.0+0x8d8>
    2440:	11002094 	add	w20, w4, #0x8
    2444:	7100029f 	cmp	w20, #0x0
    2448:	5400008d 	b.le	2458 <kprintf.constprop.0+0x9a8>
    244c:	91002c73 	add	x19, x3, #0xb
    2450:	927df273 	and	x19, x19, #0xfffffffffffffff8
    2454:	17fffff9 	b	2438 <kprintf.constprop.0+0x988>
    2458:	aa0303f3 	mov	x19, x3
    245c:	8b24c343 	add	x3, x26, w4, sxtw
    2460:	17fffff6 	b	2438 <kprintf.constprop.0+0x988>
/home/zhaoxuyang/Codes/rspi-demo/repo-tsu/optee_os/lib/libutils/ext/snprintk.c:477
    2464:	90000097 	adrp	x23, 12000 <iv_test_data+0x98>
    2468:	91174af7 	add	x23, x23, #0x5d2
    246c:	17fffdd9 	b	1bd0 <kprintf.constprop.0+0x120>
/home/zhaoxuyang/Codes/rspi-demo/repo-tsu/optee_os/lib/libutils/ext/snprintk.c:481
    2470:	3747bb35 	tbnz	w21, #8, 1bd4 <kprintf.constprop.0+0x124>
    2474:	374fbb15 	tbnz	w21, #9, 1bd4 <kprintf.constprop.0+0x124>
    2478:	372fbaf5 	tbnz	w21, #5, 1bd4 <kprintf.constprop.0+0x124>
    247c:	3727bad5 	tbnz	w21, #4, 1bd4 <kprintf.constprop.0+0x124>
    2480:	36300335 	tbz	w21, #6, 24e4 <kprintf.constprop.0+0xa34>
    2484:	37f801e4 	tbnz	w4, #31, 24c0 <kprintf.constprop.0+0xa10>
    2488:	91002c73 	add	x19, x3, #0xb
    248c:	2a0403f4 	mov	w20, w4
    2490:	927df273 	and	x19, x19, #0xfffffffffffffff8
    2494:	79400062 	ldrh	w2, [x3]
    2498:	17fffdd4 	b	1be8 <kprintf.constprop.0+0x138>
    249c:	11002094 	add	w20, w4, #0x8
    24a0:	7100029f 	cmp	w20, #0x0
    24a4:	5400008d 	b.le	24b4 <kprintf.constprop.0+0xa04>
    24a8:	91003c73 	add	x19, x3, #0xf
    24ac:	927df273 	and	x19, x19, #0xfffffffffffffff8
    24b0:	17fffdcd 	b	1be4 <kprintf.constprop.0+0x134>
    24b4:	aa0303f3 	mov	x19, x3
    24b8:	8b24c343 	add	x3, x26, w4, sxtw
    24bc:	17fffdca 	b	1be4 <kprintf.constprop.0+0x134>
    24c0:	11002094 	add	w20, w4, #0x8
    24c4:	7100029f 	cmp	w20, #0x0
    24c8:	5400008d 	b.le	24d8 <kprintf.constprop.0+0xa28>
    24cc:	91002c73 	add	x19, x3, #0xb
    24d0:	927df273 	and	x19, x19, #0xfffffffffffffff8
    24d4:	17fffff0 	b	2494 <kprintf.constprop.0+0x9e4>
    24d8:	aa0303f3 	mov	x19, x3
    24dc:	8b24c343 	add	x3, x26, w4, sxtw
    24e0:	17ffffed 	b	2494 <kprintf.constprop.0+0x9e4>
    24e4:	37f800c4 	tbnz	w4, #31, 24fc <kprintf.constprop.0+0xa4c>
    24e8:	91002c73 	add	x19, x3, #0xb
    24ec:	2a0403f4 	mov	w20, w4
    24f0:	927df273 	and	x19, x19, #0xfffffffffffffff8
    24f4:	b9400062 	ldr	w2, [x3]
    24f8:	17fffdbc 	b	1be8 <kprintf.constprop.0+0x138>
    24fc:	11002094 	add	w20, w4, #0x8
    2500:	7100029f 	cmp	w20, #0x0
    2504:	5400008d 	b.le	2514 <kprintf.constprop.0+0xa64>
    2508:	91002c73 	add	x19, x3, #0xb
    250c:	927df273 	and	x19, x19, #0xfffffffffffffff8
    2510:	17fffff9 	b	24f4 <kprintf.constprop.0+0xa44>
    2514:	aa0303f3 	mov	x19, x3
    2518:	8b24c343 	add	x3, x26, w4, sxtw
    251c:	17fffff6 	b	24f4 <kprintf.constprop.0+0xa44>
/home/zhaoxuyang/Codes/rspi-demo/repo-tsu/optee_os/lib/libutils/ext/snprintk.c:494
    2520:	52800000 	mov	w0, #0x0                   	// #0
/home/zhaoxuyang/Codes/rspi-demo/repo-tsu/optee_os/lib/libutils/ext/snprintk.c:503
    2524:	f100005f 	cmp	x2, #0x0
/home/zhaoxuyang/Codes/rspi-demo/repo-tsu/optee_os/lib/libutils/ext/snprintk.c:495
    2528:	12157ab5 	and	w21, w21, #0xfffffbff
/home/zhaoxuyang/Codes/rspi-demo/repo-tsu/optee_os/lib/libutils/ext/snprintk.c:503
    252c:	7a4008a0 	ccmp	w5, #0x0, #0x0, eq  // eq = none
    2530:	54ffc5a1 	b.ne	1de4 <kprintf.constprop.0+0x334>  // b.any
/home/zhaoxuyang/Codes/rspi-demo/repo-tsu/optee_os/lib/libutils/ext/snprintk.c:502
    2534:	91009583 	add	x3, x12, #0x25
/home/zhaoxuyang/Codes/rspi-demo/repo-tsu/optee_os/lib/libutils/ext/snprintk.c:542
    2538:	52800005 	mov	w5, #0x0                   	// #0
    253c:	17fffeaf 	b	1ff8 <kprintf.constprop.0+0x548>
/home/zhaoxuyang/Codes/rspi-demo/repo-tsu/optee_os/lib/libutils/ext/snprintk.c:494
    2540:	52800020 	mov	w0, #0x1                   	// #1
    2544:	17fffff8 	b	2524 <kprintf.constprop.0+0xa74>
/home/zhaoxuyang/Codes/rspi-demo/repo-tsu/optee_os/lib/libutils/ext/snprintk.c:523
    2548:	9ac40846 	udiv	x6, x2, x4
    254c:	9b0488c2 	msub	x2, x6, x4, x2
    2550:	1100c042 	add	w2, w2, #0x30
    2554:	381ff002 	sturb	w2, [x0, #-1]
/home/zhaoxuyang/Codes/rspi-demo/repo-tsu/optee_os/lib/libutils/ext/snprintk.c:524
    2558:	aa0603e2 	mov	x2, x6
    255c:	aa0303e0 	mov	x0, x3
    2560:	17ffff8f 	b	239c <kprintf.constprop.0+0x8ec>
/home/zhaoxuyang/Codes/rspi-demo/repo-tsu/optee_os/lib/libutils/ext/snprintk.c:547
    2564:	35ffb55c 	cbnz	w28, 1c0c <kprintf.constprop.0+0x15c>
/home/zhaoxuyang/Codes/rspi-demo/repo-tsu/optee_os/lib/libutils/ext/snprintk.c:619
    2568:	b4000048 	cbz	x8, 2570 <kprintf.constprop.0+0xac0>
/home/zhaoxuyang/Codes/rspi-demo/repo-tsu/optee_os/lib/libutils/ext/snprintk.c:620
    256c:	f9000116 	str	x22, [x8]
/home/zhaoxuyang/Codes/rspi-demo/repo-tsu/optee_os/lib/libutils/ext/snprintk.c:622
    2570:	2a1903e0 	mov	w0, w25
    2574:	a9437bfd 	ldp	x29, x30, [sp, #48]
    2578:	a94453f3 	ldp	x19, x20, [sp, #64]
    257c:	a9455bf5 	ldp	x21, x22, [sp, #80]
    2580:	a94663f7 	ldp	x23, x24, [sp, #96]
    2584:	a9476bf9 	ldp	x25, x26, [sp, #112]
    2588:	a94873fb 	ldp	x27, x28, [sp, #128]
    258c:	9103c3ff 	add	sp, sp, #0xf0
    2590:	d65f03c0 	ret
/home/zhaoxuyang/Codes/rspi-demo/repo-tsu/optee_os/lib/libutils/ext/snprintk.c:574
    2594:	360fdf75 	tbz	w21, #1, 2180 <kprintf.constprop.0+0x6d0>
/home/zhaoxuyang/Codes/rspi-demo/repo-tsu/optee_os/lib/libutils/ext/snprintk.c:575
    2598:	11000884 	add	w4, w4, #0x2
    259c:	17fffef9 	b	2180 <kprintf.constprop.0+0x6d0>
/home/zhaoxuyang/Codes/rspi-demo/repo-tsu/optee_os/lib/libutils/ext/snprintk.c:584
    25a0:	b40000b6 	cbz	x22, 25b4 <kprintf.constprop.0+0xb04>
    25a4:	f100011f 	cmp	x8, #0x0
    25a8:	fa561302 	ccmp	x24, x22, #0x2, ne  // ne = any
    25ac:	54000049 	b.ls	25b4 <kprintf.constprop.0+0xb04>  // b.plast
    25b0:	380016c2 	strb	w2, [x22], #1
    25b4:	510004e7 	sub	w7, w7, #0x1
    25b8:	17fffefa 	b	21a0 <kprintf.constprop.0+0x6f0>
/home/zhaoxuyang/Codes/rspi-demo/repo-tsu/optee_os/lib/libutils/ext/snprintk.c:590
    25bc:	360fe035 	tbz	w21, #1, 21c0 <kprintf.constprop.0+0x710>
/home/zhaoxuyang/Codes/rspi-demo/repo-tsu/optee_os/lib/libutils/ext/snprintk.c:591
    25c0:	b4ffe016 	cbz	x22, 21c0 <kprintf.constprop.0+0x710>
    25c4:	f100011f 	cmp	x8, #0x0
    25c8:	1a9f17e2 	cset	w2, eq  // eq = none
    25cc:	7100005f 	cmp	w2, #0x0
    25d0:	fa560302 	ccmp	x24, x22, #0x2, eq  // eq = none
    25d4:	54ffdf69 	b.ls	21c0 <kprintf.constprop.0+0x710>  // b.plast
    25d8:	aa1603e1 	mov	x1, x22
    25dc:	52800607 	mov	w7, #0x30                  	// #48
/home/zhaoxuyang/Codes/rspi-demo/repo-tsu/optee_os/lib/libutils/ext/snprintk.c:592
    25e0:	7100005f 	cmp	w2, #0x0
/home/zhaoxuyang/Codes/rspi-demo/repo-tsu/optee_os/lib/libutils/ext/snprintk.c:591
    25e4:	38001427 	strb	w7, [x1], #1
/home/zhaoxuyang/Codes/rspi-demo/repo-tsu/optee_os/lib/libutils/ext/snprintk.c:592
    25e8:	fa410302 	ccmp	x24, x1, #0x2, eq  // eq = none
    25ec:	54000089 	b.ls	25fc <kprintf.constprop.0+0xb4c>  // b.plast
    25f0:	91000ad6 	add	x22, x22, #0x2
    25f4:	381ff2dc 	sturb	w28, [x22, #-1]
    25f8:	17fffef2 	b	21c0 <kprintf.constprop.0+0x710>
    25fc:	aa0103f6 	mov	x22, x1
    2600:	17fffef0 	b	21c0 <kprintf.constprop.0+0x710>
/home/zhaoxuyang/Codes/rspi-demo/repo-tsu/optee_os/lib/libutils/ext/snprintk.c:599
    2604:	b40000b6 	cbz	x22, 2618 <kprintf.constprop.0+0xb68>
    2608:	f100011f 	cmp	x8, #0x0
    260c:	fa561302 	ccmp	x24, x22, #0x2, ne  // ne = any
    2610:	54000049 	b.ls	2618 <kprintf.constprop.0+0xb68>  // b.plast
    2614:	380016c1 	strb	w1, [x22], #1
    2618:	51000400 	sub	w0, w0, #0x1
    261c:	17fffeed 	b	21d0 <kprintf.constprop.0+0x720>
/home/zhaoxuyang/Codes/rspi-demo/repo-tsu/optee_os/lib/libutils/ext/snprintk.c:605
    2620:	b40000b6 	cbz	x22, 2634 <kprintf.constprop.0+0xb84>
    2624:	f100011f 	cmp	x8, #0x0
    2628:	fa561302 	ccmp	x24, x22, #0x2, ne  // ne = any
    262c:	54000049 	b.ls	2634 <kprintf.constprop.0+0xb84>  // b.plast
    2630:	380016c0 	strb	w0, [x22], #1
    2634:	510004c6 	sub	w6, w6, #0x1
    2638:	17fffeea 	b	21e0 <kprintf.constprop.0+0x730>
/home/zhaoxuyang/Codes/rspi-demo/repo-tsu/optee_os/lib/libutils/ext/snprintk.c:609
    263c:	b40000d6 	cbz	x22, 2654 <kprintf.constprop.0+0xba4>
    2640:	f100011f 	cmp	x8, #0x0
    2644:	fa561302 	ccmp	x24, x22, #0x2, ne  // ne = any
    2648:	54000069 	b.ls	2654 <kprintf.constprop.0+0xba4>  // b.plast
    264c:	38616860 	ldrb	w0, [x3, x1]
    2650:	380016c0 	strb	w0, [x22], #1
/home/zhaoxuyang/Codes/rspi-demo/repo-tsu/optee_os/lib/libutils/ext/snprintk.c:608
    2654:	91000421 	add	x1, x1, #0x1
    2658:	17fffee6 	b	21f0 <kprintf.constprop.0+0x740>

000000000000265c <__vsprintf>:
__vsprintf():
/home/zhaoxuyang/Codes/rspi-demo/repo-tsu/optee_os/lib/libutils/ext/snprintk.c:155
    265c:	a9bc7bfd 	stp	x29, x30, [sp, #-64]!
/home/zhaoxuyang/Codes/rspi-demo/repo-tsu/optee_os/lib/libutils/ext/snprintk.c:156
    2660:	910083e3 	add	x3, sp, #0x20
/home/zhaoxuyang/Codes/rspi-demo/repo-tsu/optee_os/lib/libutils/ext/snprintk.c:155
    2664:	910003fd 	mov	x29, sp
    2668:	a90153f3 	stp	x19, x20, [sp, #16]
    266c:	aa0003f4 	mov	x20, x0
    2670:	aa0103f3 	mov	x19, x1
/home/zhaoxuyang/Codes/rspi-demo/repo-tsu/optee_os/lib/libutils/ext/snprintk.c:156
    2674:	aa0303e0 	mov	x0, x3
/home/zhaoxuyang/Codes/rspi-demo/repo-tsu/optee_os/lib/libutils/ext/snprintk.c:155
    2678:	aa0203e1 	mov	x1, x2
/home/zhaoxuyang/Codes/rspi-demo/repo-tsu/optee_os/lib/libutils/ext/snprintk.c:156
    267c:	d2800402 	mov	x2, #0x20                  	// #32
    2680:	97fff668 	bl	20 <memcpy>
    2684:	aa1403e2 	mov	x2, x20
    2688:	aa0003e3 	mov	x3, x0
    268c:	52800004 	mov	w4, #0x0                   	// #0
    2690:	aa1303e0 	mov	x0, x19
    2694:	d2800001 	mov	x1, #0x0                   	// #0
    2698:	97fffd06 	bl	1ab0 <kprintf.constprop.0>
/home/zhaoxuyang/Codes/rspi-demo/repo-tsu/optee_os/lib/libutils/ext/snprintk.c:157
    269c:	a94153f3 	ldp	x19, x20, [sp, #16]
    26a0:	a8c47bfd 	ldp	x29, x30, [sp], #64
    26a4:	d65f03c0 	ret

00000000000026a8 <memchr>:
memchr():
/home/zhaoxuyang/Codes/rspi-demo/repo-tsu/optee_os/lib/libutils/isoc/newlib/memchr.c:109
    26a8:	12001c21 	and	w1, w1, #0xff
/home/zhaoxuyang/Codes/rspi-demo/repo-tsu/optee_os/lib/libutils/isoc/newlib/memchr.c:153
    26ac:	8b020002 	add	x2, x0, x2
    26b0:	eb02001f 	cmp	x0, x2
    26b4:	54000061 	b.ne	26c0 <memchr+0x18>  // b.any
/home/zhaoxuyang/Codes/rspi-demo/repo-tsu/optee_os/lib/libutils/isoc/newlib/memchr.c:159
    26b8:	d2800000 	mov	x0, #0x0                   	// #0
/home/zhaoxuyang/Codes/rspi-demo/repo-tsu/optee_os/lib/libutils/isoc/newlib/memchr.c:160
    26bc:	d65f03c0 	ret
/home/zhaoxuyang/Codes/rspi-demo/repo-tsu/optee_os/lib/libutils/isoc/newlib/memchr.c:154
    26c0:	39400003 	ldrb	w3, [x0]
    26c4:	6b01007f 	cmp	w3, w1
    26c8:	54ffffa0 	b.eq	26bc <memchr+0x14>  // b.none
/home/zhaoxuyang/Codes/rspi-demo/repo-tsu/optee_os/lib/libutils/isoc/newlib/memchr.c:156
    26cc:	91000400 	add	x0, x0, #0x1
    26d0:	17fffff8 	b	26b0 <memchr+0x8>

00000000000026d4 <_assert_log>:
_assert_log():
/home/zhaoxuyang/Codes/rspi-demo/repo-tsu/optee_os/lib/libutee/assert.c:17
    26d4:	d10083ff 	sub	sp, sp, #0x20
/home/zhaoxuyang/Codes/rspi-demo/repo-tsu/optee_os/lib/libutee/assert.c:18
    26d8:	2a0203e7 	mov	w7, w2
    26dc:	aa0103e6 	mov	x6, x1
    26e0:	aa0003e5 	mov	x5, x0
    26e4:	52800022 	mov	w2, #0x1                   	// #1
    26e8:	52800001 	mov	w1, #0x0                   	// #0
/home/zhaoxuyang/Codes/rspi-demo/repo-tsu/optee_os/lib/libutee/assert.c:17
    26ec:	a9017bfd 	stp	x29, x30, [sp, #16]
    26f0:	910043fd 	add	x29, sp, #0x10
/home/zhaoxuyang/Codes/rspi-demo/repo-tsu/optee_os/lib/libutee/assert.c:18
    26f4:	d2800000 	mov	x0, #0x0                   	// #0
    26f8:	b0000084 	adrp	x4, 13000 <SB5+0x84>
    26fc:	f90003e3 	str	x3, [sp]
    2700:	9117f884 	add	x4, x4, #0x5fe
    2704:	52800023 	mov	w3, #0x1                   	// #1
    2708:	97fffc77 	bl	18e4 <trace_printf>
/home/zhaoxuyang/Codes/rspi-demo/repo-tsu/optee_os/lib/libutee/assert.c:20
    270c:	a9417bfd 	ldp	x29, x30, [sp, #16]
    2710:	910083ff 	add	sp, sp, #0x20
    2714:	d65f03c0 	ret

0000000000002718 <_assert_break>:
_assert_break():
/home/zhaoxuyang/Codes/rspi-demo/repo-tsu/optee_os/lib/libutee/assert.c:23
    2718:	a9bf7bfd 	stp	x29, x30, [sp, #-16]!
/home/zhaoxuyang/Codes/rspi-demo/repo-tsu/optee_os/lib/libutee/assert.c:24
    271c:	d2bfffe0 	mov	x0, #0xffff0000            	// #4294901760
/home/zhaoxuyang/Codes/rspi-demo/repo-tsu/optee_os/lib/libutee/assert.c:23
    2720:	910003fd 	mov	x29, sp
/home/zhaoxuyang/Codes/rspi-demo/repo-tsu/optee_os/lib/libutee/assert.c:24
    2724:	9400005f 	bl	28a0 <_utee_panic>
/home/zhaoxuyang/Codes/rspi-demo/repo-tsu/optee_os/lib/libutee/assert.c:26 (discriminator 1)
    2728:	14000000 	b	2728 <_assert_break+0x10>

000000000000272c <trace_ext_puts>:
trace_ext_puts():
/home/zhaoxuyang/Codes/rspi-demo/repo-tsu/optee_os/lib/libutee/trace_ext.c:22
    272c:	a9be7bfd 	stp	x29, x30, [sp, #-32]!
    2730:	910003fd 	mov	x29, sp
    2734:	f9000bf3 	str	x19, [sp, #16]
    2738:	aa0003f3 	mov	x19, x0
/home/zhaoxuyang/Codes/rspi-demo/repo-tsu/optee_os/lib/libutee/trace_ext.c:26
    273c:	97fffbdc 	bl	16ac <strlen>
    2740:	aa0003e1 	mov	x1, x0
    2744:	aa1303e0 	mov	x0, x19
/home/zhaoxuyang/Codes/rspi-demo/repo-tsu/optee_os/lib/libutee/trace_ext.c:28
    2748:	f9400bf3 	ldr	x19, [sp, #16]
    274c:	a8c27bfd 	ldp	x29, x30, [sp], #32
/home/zhaoxuyang/Codes/rspi-demo/repo-tsu/optee_os/lib/libutee/trace_ext.c:26
    2750:	1400005a 	b	28b8 <_utee_log>

0000000000002754 <trace_ext_get_thread_id>:
trace_ext_get_thread_id():
/home/zhaoxuyang/Codes/rspi-demo/repo-tsu/optee_os/lib/libutee/trace_ext.c:33
    2754:	12800000 	mov	w0, #0xffffffff            	// #-1
    2758:	d65f03c0 	ret

000000000000275c <printf>:
printf():
/home/zhaoxuyang/Codes/rspi-demo/repo-tsu/optee_os/lib/libutee/trace_ext.c:41
    275c:	d10883ff 	sub	sp, sp, #0x220
    2760:	a9007bfd 	stp	x29, x30, [sp]
    2764:	910003fd 	mov	x29, sp
    2768:	a90153f3 	stp	x19, x20, [sp, #16]
    276c:	aa0003f3 	mov	x19, x0
    2770:	3d805be0 	str	q0, [sp, #352]
    2774:	3d805fe1 	str	q1, [sp, #368]
    2778:	3d8063e2 	str	q2, [sp, #384]
    277c:	3d8067e3 	str	q3, [sp, #400]
    2780:	3d806be4 	str	q4, [sp, #416]
    2784:	3d806fe5 	str	q5, [sp, #432]
    2788:	3d8073e6 	str	q6, [sp, #448]
    278c:	3d8077e7 	str	q7, [sp, #464]
    2790:	a91e8be1 	stp	x1, x2, [sp, #488]
    2794:	a91f93e3 	stp	x3, x4, [sp, #504]
    2798:	f90107e5 	str	x5, [sp, #520]
    279c:	f9010be6 	str	x6, [sp, #528]
    27a0:	f9010fe7 	str	x7, [sp, #536]
/home/zhaoxuyang/Codes/rspi-demo/repo-tsu/optee_os/lib/libutee/trace_ext.c:46
    27a4:	97fffbd0 	bl	16e4 <trace_get_level>
    27a8:	7100001f 	cmp	w0, #0x0
    27ac:	5400038d 	b.le	281c <printf+0xc0>
/home/zhaoxuyang/Codes/rspi-demo/repo-tsu/optee_os/lib/libutee/trace_ext.c:49
    27b0:	910883e0 	add	x0, sp, #0x220
    27b4:	a90403e0 	stp	x0, x0, [sp, #64]
    27b8:	910783e0 	add	x0, sp, #0x1e0
    27bc:	f9002be0 	str	x0, [sp, #80]
    27c0:	128006e0 	mov	w0, #0xffffffc8            	// #-56
    27c4:	b9005be0 	str	w0, [sp, #88]
    27c8:	12800fe0 	mov	w0, #0xffffff80            	// #-128
    27cc:	b9005fe0 	str	w0, [sp, #92]
/home/zhaoxuyang/Codes/rspi-demo/repo-tsu/optee_os/lib/libutee/trace_ext.c:50
    27d0:	910183f4 	add	x20, sp, #0x60
    27d4:	a94407e0 	ldp	x0, x1, [sp, #64]
    27d8:	a90207e0 	stp	x0, x1, [sp, #32]
    27dc:	aa1303e2 	mov	x2, x19
    27e0:	a94507e0 	ldp	x0, x1, [sp, #80]
    27e4:	910083e3 	add	x3, sp, #0x20
    27e8:	a90307e0 	stp	x0, x1, [sp, #48]
    27ec:	aa1403e0 	mov	x0, x20
    27f0:	d2802001 	mov	x1, #0x100                 	// #256
    27f4:	94002fcd 	bl	e728 <vsnprintf>
    27f8:	2a0003f3 	mov	w19, w0
/home/zhaoxuyang/Codes/rspi-demo/repo-tsu/optee_os/lib/libutee/trace_ext.c:53
    27fc:	37f80060 	tbnz	w0, #31, 2808 <printf+0xac>
/home/zhaoxuyang/Codes/rspi-demo/repo-tsu/optee_os/lib/libutee/trace_ext.c:56
    2800:	aa1403e0 	mov	x0, x20
    2804:	97ffffca 	bl	272c <trace_ext_puts>
/home/zhaoxuyang/Codes/rspi-demo/repo-tsu/optee_os/lib/libutee/trace_ext.c:59
    2808:	2a1303e0 	mov	w0, w19
    280c:	a9407bfd 	ldp	x29, x30, [sp]
    2810:	a94153f3 	ldp	x19, x20, [sp, #16]
    2814:	910883ff 	add	sp, sp, #0x220
    2818:	d65f03c0 	ret
/home/zhaoxuyang/Codes/rspi-demo/repo-tsu/optee_os/lib/libutee/trace_ext.c:47
    281c:	52800013 	mov	w19, #0x0                   	// #0
    2820:	17fffffa 	b	2808 <printf+0xac>

0000000000002824 <puts>:
puts():
/home/zhaoxuyang/Codes/rspi-demo/repo-tsu/optee_os/lib/libutee/trace_ext.c:62
    2824:	a9be7bfd 	stp	x29, x30, [sp, #-32]!
    2828:	910003fd 	mov	x29, sp
    282c:	f9000bf3 	str	x19, [sp, #16]
    2830:	aa0003f3 	mov	x19, x0
/home/zhaoxuyang/Codes/rspi-demo/repo-tsu/optee_os/lib/libutee/trace_ext.c:63
    2834:	97fffbac 	bl	16e4 <trace_get_level>
    2838:	7100001f 	cmp	w0, #0x0
    283c:	540000cd 	b.le	2854 <puts+0x30>
/home/zhaoxuyang/Codes/rspi-demo/repo-tsu/optee_os/lib/libutee/trace_ext.c:64
    2840:	aa1303e0 	mov	x0, x19
    2844:	97ffffba 	bl	272c <trace_ext_puts>
/home/zhaoxuyang/Codes/rspi-demo/repo-tsu/optee_os/lib/libutee/trace_ext.c:65
    2848:	b0000080 	adrp	x0, 13000 <SB5+0x84>
    284c:	91119c00 	add	x0, x0, #0x467
    2850:	97ffffb7 	bl	272c <trace_ext_puts>
/home/zhaoxuyang/Codes/rspi-demo/repo-tsu/optee_os/lib/libutee/trace_ext.c:68
    2854:	52800020 	mov	w0, #0x1                   	// #1
    2858:	f9400bf3 	ldr	x19, [sp, #16]
    285c:	a8c27bfd 	ldp	x29, x30, [sp], #32
    2860:	d65f03c0 	ret

0000000000002864 <putchar>:
putchar():
/home/zhaoxuyang/Codes/rspi-demo/repo-tsu/optee_os/lib/libutee/trace_ext.c:71
    2864:	a9bd7bfd 	stp	x29, x30, [sp, #-48]!
    2868:	910003fd 	mov	x29, sp
    286c:	f9000bf3 	str	x19, [sp, #16]
    2870:	2a0003f3 	mov	w19, w0
/home/zhaoxuyang/Codes/rspi-demo/repo-tsu/optee_os/lib/libutee/trace_ext.c:72
    2874:	3900a3e0 	strb	w0, [sp, #40]
    2878:	3900a7ff 	strb	wzr, [sp, #41]
/home/zhaoxuyang/Codes/rspi-demo/repo-tsu/optee_os/lib/libutee/trace_ext.c:74
    287c:	97fffb9a 	bl	16e4 <trace_get_level>
    2880:	7100001f 	cmp	w0, #0x0
    2884:	5400006d 	b.le	2890 <putchar+0x2c>
/home/zhaoxuyang/Codes/rspi-demo/repo-tsu/optee_os/lib/libutee/trace_ext.c:75
    2888:	9100a3e0 	add	x0, sp, #0x28
    288c:	97ffffa8 	bl	272c <trace_ext_puts>
/home/zhaoxuyang/Codes/rspi-demo/repo-tsu/optee_os/lib/libutee/trace_ext.c:82
    2890:	12001e60 	and	w0, w19, #0xff
    2894:	f9400bf3 	ldr	x19, [sp, #16]
    2898:	a8c37bfd 	ldp	x29, x30, [sp], #48
    289c:	d65f03c0 	ret

00000000000028a0 <_utee_panic>:
_utee_panic():
/home/zhaoxuyang/Codes/rspi-demo/repo-tsu/optee_os/lib/libutee/arch/arm/utee_syscalls_a64.S:41
    28a0:	a9bf7bfd 	stp	x29, x30, [sp, #-16]!
/home/zhaoxuyang/Codes/rspi-demo/repo-tsu/optee_os/lib/libutee/arch/arm/utee_syscalls_a64.S:42
    28a4:	910003e1 	mov	x1, sp
/home/zhaoxuyang/Codes/rspi-demo/repo-tsu/optee_os/lib/libutee/arch/arm/utee_syscalls_a64.S:43
    28a8:	94000007 	bl	28c4 <__utee_panic>

00000000000028ac <_utee_return>:
_utee_return():
/home/zhaoxuyang/Codes/rspi-demo/repo-tsu/optee_os/lib/libutee/arch/arm/utee_syscalls_asm.S:8
    28ac:	d2800008 	mov	x8, #0x0                   	// #0
    28b0:	d4000001 	svc	#0x0
    28b4:	d65f03c0 	ret

00000000000028b8 <_utee_log>:
_utee_log():
/home/zhaoxuyang/Codes/rspi-demo/repo-tsu/optee_os/lib/libutee/arch/arm/utee_syscalls_asm.S:10
    28b8:	d2800028 	mov	x8, #0x1                   	// #1
    28bc:	d4000001 	svc	#0x0
    28c0:	d65f03c0 	ret

00000000000028c4 <__utee_panic>:
__utee_panic():
/home/zhaoxuyang/Codes/rspi-demo/repo-tsu/optee_os/lib/libutee/arch/arm/utee_syscalls_asm.S:12
    28c4:	d2800048 	mov	x8, #0x2                   	// #2
    28c8:	d4000001 	svc	#0x0
    28cc:	d65f03c0 	ret

00000000000028d0 <_utee_get_property>:
_utee_get_property():
/home/zhaoxuyang/Codes/rspi-demo/repo-tsu/optee_os/lib/libutee/arch/arm/utee_syscalls_asm.S:14
    28d0:	d2800068 	mov	x8, #0x3                   	// #3
    28d4:	d4000001 	svc	#0x0
    28d8:	d65f03c0 	ret

00000000000028dc <_utee_get_property_name_to_index>:
_utee_get_property_name_to_index():
/home/zhaoxuyang/Codes/rspi-demo/repo-tsu/optee_os/lib/libutee/arch/arm/utee_syscalls_asm.S:16
    28dc:	d2800088 	mov	x8, #0x4                   	// #4
    28e0:	d4000001 	svc	#0x0
    28e4:	d65f03c0 	ret

00000000000028e8 <_utee_open_ta_session>:
_utee_open_ta_session():
/home/zhaoxuyang/Codes/rspi-demo/repo-tsu/optee_os/lib/libutee/arch/arm/utee_syscalls_asm.S:19
    28e8:	d28000a8 	mov	x8, #0x5                   	// #5
    28ec:	d4000001 	svc	#0x0
    28f0:	d65f03c0 	ret

00000000000028f4 <_utee_close_ta_session>:
_utee_close_ta_session():
/home/zhaoxuyang/Codes/rspi-demo/repo-tsu/optee_os/lib/libutee/arch/arm/utee_syscalls_asm.S:21
    28f4:	d28000c8 	mov	x8, #0x6                   	// #6
    28f8:	d4000001 	svc	#0x0
    28fc:	d65f03c0 	ret

0000000000002900 <_utee_invoke_ta_command>:
_utee_invoke_ta_command():
/home/zhaoxuyang/Codes/rspi-demo/repo-tsu/optee_os/lib/libutee/arch/arm/utee_syscalls_asm.S:23
    2900:	d28000e8 	mov	x8, #0x7                   	// #7
    2904:	d4000001 	svc	#0x0
    2908:	d65f03c0 	ret

000000000000290c <_utee_get_cancellation_flag>:
_utee_get_cancellation_flag():
/home/zhaoxuyang/Codes/rspi-demo/repo-tsu/optee_os/lib/libutee/arch/arm/utee_syscalls_asm.S:25
    290c:	d2800128 	mov	x8, #0x9                   	// #9
    2910:	d4000001 	svc	#0x0
    2914:	d65f03c0 	ret

0000000000002918 <_utee_check_access_rights>:
_utee_check_access_rights():
/home/zhaoxuyang/Codes/rspi-demo/repo-tsu/optee_os/lib/libutee/arch/arm/utee_syscalls_asm.S:28
    2918:	d2800108 	mov	x8, #0x8                   	// #8
    291c:	d4000001 	svc	#0x0
    2920:	d65f03c0 	ret

0000000000002924 <_utee_unmask_cancellation>:
_utee_unmask_cancellation():
/home/zhaoxuyang/Codes/rspi-demo/repo-tsu/optee_os/lib/libutee/arch/arm/utee_syscalls_asm.S:30
    2924:	d2800148 	mov	x8, #0xa                   	// #10
    2928:	d4000001 	svc	#0x0
    292c:	d65f03c0 	ret

0000000000002930 <_utee_mask_cancellation>:
_utee_mask_cancellation():
/home/zhaoxuyang/Codes/rspi-demo/repo-tsu/optee_os/lib/libutee/arch/arm/utee_syscalls_asm.S:32
    2930:	d2800168 	mov	x8, #0xb                   	// #11
    2934:	d4000001 	svc	#0x0
    2938:	d65f03c0 	ret

000000000000293c <_utee_wait>:
_utee_wait():
/home/zhaoxuyang/Codes/rspi-demo/repo-tsu/optee_os/lib/libutee/arch/arm/utee_syscalls_asm.S:34
    293c:	d2800188 	mov	x8, #0xc                   	// #12
    2940:	d4000001 	svc	#0x0
    2944:	d65f03c0 	ret

0000000000002948 <_utee_get_time>:
_utee_get_time():
/home/zhaoxuyang/Codes/rspi-demo/repo-tsu/optee_os/lib/libutee/arch/arm/utee_syscalls_asm.S:36
    2948:	d28001a8 	mov	x8, #0xd                   	// #13
    294c:	d4000001 	svc	#0x0
    2950:	d65f03c0 	ret

0000000000002954 <_utee_set_ta_time>:
_utee_set_ta_time():
/home/zhaoxuyang/Codes/rspi-demo/repo-tsu/optee_os/lib/libutee/arch/arm/utee_syscalls_asm.S:38
    2954:	d28001c8 	mov	x8, #0xe                   	// #14
    2958:	d4000001 	svc	#0x0
    295c:	d65f03c0 	ret

0000000000002960 <_utee_cryp_state_alloc>:
_utee_cryp_state_alloc():
/home/zhaoxuyang/Codes/rspi-demo/repo-tsu/optee_os/lib/libutee/arch/arm/utee_syscalls_asm.S:40
    2960:	d28001e8 	mov	x8, #0xf                   	// #15
    2964:	d4000001 	svc	#0x0
    2968:	d65f03c0 	ret

000000000000296c <_utee_cryp_state_copy>:
_utee_cryp_state_copy():
/home/zhaoxuyang/Codes/rspi-demo/repo-tsu/optee_os/lib/libutee/arch/arm/utee_syscalls_asm.S:42
    296c:	d2800208 	mov	x8, #0x10                  	// #16
    2970:	d4000001 	svc	#0x0
    2974:	d65f03c0 	ret

0000000000002978 <_utee_cryp_state_free>:
_utee_cryp_state_free():
/home/zhaoxuyang/Codes/rspi-demo/repo-tsu/optee_os/lib/libutee/arch/arm/utee_syscalls_asm.S:44
    2978:	d2800228 	mov	x8, #0x11                  	// #17
    297c:	d4000001 	svc	#0x0
    2980:	d65f03c0 	ret

0000000000002984 <_utee_hash_init>:
_utee_hash_init():
/home/zhaoxuyang/Codes/rspi-demo/repo-tsu/optee_os/lib/libutee/arch/arm/utee_syscalls_asm.S:46
    2984:	d2800248 	mov	x8, #0x12                  	// #18
    2988:	d4000001 	svc	#0x0
    298c:	d65f03c0 	ret

0000000000002990 <_utee_hash_update>:
_utee_hash_update():
/home/zhaoxuyang/Codes/rspi-demo/repo-tsu/optee_os/lib/libutee/arch/arm/utee_syscalls_asm.S:48
    2990:	d2800268 	mov	x8, #0x13                  	// #19
    2994:	d4000001 	svc	#0x0
    2998:	d65f03c0 	ret

000000000000299c <_utee_hash_final>:
_utee_hash_final():
/home/zhaoxuyang/Codes/rspi-demo/repo-tsu/optee_os/lib/libutee/arch/arm/utee_syscalls_asm.S:50
    299c:	d2800288 	mov	x8, #0x14                  	// #20
    29a0:	d4000001 	svc	#0x0
    29a4:	d65f03c0 	ret

00000000000029a8 <_utee_cipher_init>:
_utee_cipher_init():
/home/zhaoxuyang/Codes/rspi-demo/repo-tsu/optee_os/lib/libutee/arch/arm/utee_syscalls_asm.S:52
    29a8:	d28002a8 	mov	x8, #0x15                  	// #21
    29ac:	d4000001 	svc	#0x0
    29b0:	d65f03c0 	ret

00000000000029b4 <_utee_cipher_update>:
_utee_cipher_update():
/home/zhaoxuyang/Codes/rspi-demo/repo-tsu/optee_os/lib/libutee/arch/arm/utee_syscalls_asm.S:54
    29b4:	d28002c8 	mov	x8, #0x16                  	// #22
    29b8:	d4000001 	svc	#0x0
    29bc:	d65f03c0 	ret

00000000000029c0 <_utee_cipher_final>:
_utee_cipher_final():
/home/zhaoxuyang/Codes/rspi-demo/repo-tsu/optee_os/lib/libutee/arch/arm/utee_syscalls_asm.S:56
    29c0:	d28002e8 	mov	x8, #0x17                  	// #23
    29c4:	d4000001 	svc	#0x0
    29c8:	d65f03c0 	ret

00000000000029cc <_utee_cryp_obj_get_info>:
_utee_cryp_obj_get_info():
/home/zhaoxuyang/Codes/rspi-demo/repo-tsu/optee_os/lib/libutee/arch/arm/utee_syscalls_asm.S:58
    29cc:	d2800308 	mov	x8, #0x18                  	// #24
    29d0:	d4000001 	svc	#0x0
    29d4:	d65f03c0 	ret

00000000000029d8 <_utee_cryp_obj_restrict_usage>:
_utee_cryp_obj_restrict_usage():
/home/zhaoxuyang/Codes/rspi-demo/repo-tsu/optee_os/lib/libutee/arch/arm/utee_syscalls_asm.S:60
    29d8:	d2800328 	mov	x8, #0x19                  	// #25
    29dc:	d4000001 	svc	#0x0
    29e0:	d65f03c0 	ret

00000000000029e4 <_utee_cryp_obj_get_attr>:
_utee_cryp_obj_get_attr():
/home/zhaoxuyang/Codes/rspi-demo/repo-tsu/optee_os/lib/libutee/arch/arm/utee_syscalls_asm.S:63
    29e4:	d2800348 	mov	x8, #0x1a                  	// #26
    29e8:	d4000001 	svc	#0x0
    29ec:	d65f03c0 	ret

00000000000029f0 <_utee_cryp_obj_alloc>:
_utee_cryp_obj_alloc():
/home/zhaoxuyang/Codes/rspi-demo/repo-tsu/optee_os/lib/libutee/arch/arm/utee_syscalls_asm.S:65
    29f0:	d2800368 	mov	x8, #0x1b                  	// #27
    29f4:	d4000001 	svc	#0x0
    29f8:	d65f03c0 	ret

00000000000029fc <_utee_cryp_obj_close>:
_utee_cryp_obj_close():
/home/zhaoxuyang/Codes/rspi-demo/repo-tsu/optee_os/lib/libutee/arch/arm/utee_syscalls_asm.S:67
    29fc:	d2800388 	mov	x8, #0x1c                  	// #28
    2a00:	d4000001 	svc	#0x0
    2a04:	d65f03c0 	ret

0000000000002a08 <_utee_cryp_obj_reset>:
_utee_cryp_obj_reset():
/home/zhaoxuyang/Codes/rspi-demo/repo-tsu/optee_os/lib/libutee/arch/arm/utee_syscalls_asm.S:69
    2a08:	d28003a8 	mov	x8, #0x1d                  	// #29
    2a0c:	d4000001 	svc	#0x0
    2a10:	d65f03c0 	ret

0000000000002a14 <_utee_cryp_obj_populate>:
_utee_cryp_obj_populate():
/home/zhaoxuyang/Codes/rspi-demo/repo-tsu/optee_os/lib/libutee/arch/arm/utee_syscalls_asm.S:71
    2a14:	d28003c8 	mov	x8, #0x1e                  	// #30
    2a18:	d4000001 	svc	#0x0
    2a1c:	d65f03c0 	ret

0000000000002a20 <_utee_cryp_obj_copy>:
_utee_cryp_obj_copy():
/home/zhaoxuyang/Codes/rspi-demo/repo-tsu/optee_os/lib/libutee/arch/arm/utee_syscalls_asm.S:73
    2a20:	d28003e8 	mov	x8, #0x1f                  	// #31
    2a24:	d4000001 	svc	#0x0
    2a28:	d65f03c0 	ret

0000000000002a2c <_utee_cryp_derive_key>:
_utee_cryp_derive_key():
/home/zhaoxuyang/Codes/rspi-demo/repo-tsu/optee_os/lib/libutee/arch/arm/utee_syscalls_asm.S:75
    2a2c:	d2800408 	mov	x8, #0x20                  	// #32
    2a30:	d4000001 	svc	#0x0
    2a34:	d65f03c0 	ret

0000000000002a38 <_utee_cryp_random_number_generate>:
_utee_cryp_random_number_generate():
/home/zhaoxuyang/Codes/rspi-demo/repo-tsu/optee_os/lib/libutee/arch/arm/utee_syscalls_asm.S:77
    2a38:	d2800428 	mov	x8, #0x21                  	// #33
    2a3c:	d4000001 	svc	#0x0
    2a40:	d65f03c0 	ret

0000000000002a44 <_utee_authenc_init>:
_utee_authenc_init():
/home/zhaoxuyang/Codes/rspi-demo/repo-tsu/optee_os/lib/libutee/arch/arm/utee_syscalls_asm.S:80
    2a44:	d2800448 	mov	x8, #0x22                  	// #34
    2a48:	d4000001 	svc	#0x0
    2a4c:	d65f03c0 	ret

0000000000002a50 <_utee_authenc_update_aad>:
_utee_authenc_update_aad():
/home/zhaoxuyang/Codes/rspi-demo/repo-tsu/optee_os/lib/libutee/arch/arm/utee_syscalls_asm.S:82
    2a50:	d2800468 	mov	x8, #0x23                  	// #35
    2a54:	d4000001 	svc	#0x0
    2a58:	d65f03c0 	ret

0000000000002a5c <_utee_authenc_update_payload>:
_utee_authenc_update_payload():
/home/zhaoxuyang/Codes/rspi-demo/repo-tsu/optee_os/lib/libutee/arch/arm/utee_syscalls_asm.S:84
    2a5c:	d2800488 	mov	x8, #0x24                  	// #36
    2a60:	d4000001 	svc	#0x0
    2a64:	d65f03c0 	ret

0000000000002a68 <_utee_authenc_enc_final>:
_utee_authenc_enc_final():
/home/zhaoxuyang/Codes/rspi-demo/repo-tsu/optee_os/lib/libutee/arch/arm/utee_syscalls_asm.S:87
    2a68:	d28004a8 	mov	x8, #0x25                  	// #37
    2a6c:	d4000001 	svc	#0x0
    2a70:	d65f03c0 	ret

0000000000002a74 <_utee_authenc_dec_final>:
_utee_authenc_dec_final():
/home/zhaoxuyang/Codes/rspi-demo/repo-tsu/optee_os/lib/libutee/arch/arm/utee_syscalls_asm.S:89
    2a74:	d28004c8 	mov	x8, #0x26                  	// #38
    2a78:	d4000001 	svc	#0x0
    2a7c:	d65f03c0 	ret

0000000000002a80 <_utee_asymm_operate>:
_utee_asymm_operate():
/home/zhaoxuyang/Codes/rspi-demo/repo-tsu/optee_os/lib/libutee/arch/arm/utee_syscalls_asm.S:91
    2a80:	d28004e8 	mov	x8, #0x27                  	// #39
    2a84:	d4000001 	svc	#0x0
    2a88:	d65f03c0 	ret

0000000000002a8c <_utee_asymm_verify>:
_utee_asymm_verify():
/home/zhaoxuyang/Codes/rspi-demo/repo-tsu/optee_os/lib/libutee/arch/arm/utee_syscalls_asm.S:93
    2a8c:	d2800508 	mov	x8, #0x28                  	// #40
    2a90:	d4000001 	svc	#0x0
    2a94:	d65f03c0 	ret

0000000000002a98 <_utee_storage_obj_open>:
_utee_storage_obj_open():
/home/zhaoxuyang/Codes/rspi-demo/repo-tsu/optee_os/lib/libutee/arch/arm/utee_syscalls_asm.S:95
    2a98:	d2800528 	mov	x8, #0x29                  	// #41
    2a9c:	d4000001 	svc	#0x0
    2aa0:	d65f03c0 	ret

0000000000002aa4 <_utee_storage_obj_create>:
_utee_storage_obj_create():
/home/zhaoxuyang/Codes/rspi-demo/repo-tsu/optee_os/lib/libutee/arch/arm/utee_syscalls_asm.S:97
    2aa4:	d2800548 	mov	x8, #0x2a                  	// #42
    2aa8:	d4000001 	svc	#0x0
    2aac:	d65f03c0 	ret

0000000000002ab0 <_utee_storage_obj_del>:
_utee_storage_obj_del():
/home/zhaoxuyang/Codes/rspi-demo/repo-tsu/optee_os/lib/libutee/arch/arm/utee_syscalls_asm.S:99
    2ab0:	d2800568 	mov	x8, #0x2b                  	// #43
    2ab4:	d4000001 	svc	#0x0
    2ab8:	d65f03c0 	ret

0000000000002abc <_utee_storage_obj_rename>:
_utee_storage_obj_rename():
/home/zhaoxuyang/Codes/rspi-demo/repo-tsu/optee_os/lib/libutee/arch/arm/utee_syscalls_asm.S:101
    2abc:	d2800588 	mov	x8, #0x2c                  	// #44
    2ac0:	d4000001 	svc	#0x0
    2ac4:	d65f03c0 	ret

0000000000002ac8 <_utee_storage_alloc_enum>:
_utee_storage_alloc_enum():
/home/zhaoxuyang/Codes/rspi-demo/repo-tsu/optee_os/lib/libutee/arch/arm/utee_syscalls_asm.S:103
    2ac8:	d28005a8 	mov	x8, #0x2d                  	// #45
    2acc:	d4000001 	svc	#0x0
    2ad0:	d65f03c0 	ret

0000000000002ad4 <_utee_storage_free_enum>:
_utee_storage_free_enum():
/home/zhaoxuyang/Codes/rspi-demo/repo-tsu/optee_os/lib/libutee/arch/arm/utee_syscalls_asm.S:105
    2ad4:	d28005c8 	mov	x8, #0x2e                  	// #46
    2ad8:	d4000001 	svc	#0x0
    2adc:	d65f03c0 	ret

0000000000002ae0 <_utee_storage_reset_enum>:
_utee_storage_reset_enum():
/home/zhaoxuyang/Codes/rspi-demo/repo-tsu/optee_os/lib/libutee/arch/arm/utee_syscalls_asm.S:107
    2ae0:	d28005e8 	mov	x8, #0x2f                  	// #47
    2ae4:	d4000001 	svc	#0x0
    2ae8:	d65f03c0 	ret

0000000000002aec <_utee_storage_start_enum>:
_utee_storage_start_enum():
/home/zhaoxuyang/Codes/rspi-demo/repo-tsu/optee_os/lib/libutee/arch/arm/utee_syscalls_asm.S:109
    2aec:	d2800608 	mov	x8, #0x30                  	// #48
    2af0:	d4000001 	svc	#0x0
    2af4:	d65f03c0 	ret

0000000000002af8 <_utee_storage_next_enum>:
_utee_storage_next_enum():
/home/zhaoxuyang/Codes/rspi-demo/repo-tsu/optee_os/lib/libutee/arch/arm/utee_syscalls_asm.S:111
    2af8:	d2800628 	mov	x8, #0x31                  	// #49
    2afc:	d4000001 	svc	#0x0
    2b00:	d65f03c0 	ret

0000000000002b04 <_utee_storage_obj_read>:
_utee_storage_obj_read():
/home/zhaoxuyang/Codes/rspi-demo/repo-tsu/optee_os/lib/libutee/arch/arm/utee_syscalls_asm.S:113
    2b04:	d2800648 	mov	x8, #0x32                  	// #50
    2b08:	d4000001 	svc	#0x0
    2b0c:	d65f03c0 	ret

0000000000002b10 <_utee_storage_obj_write>:
_utee_storage_obj_write():
/home/zhaoxuyang/Codes/rspi-demo/repo-tsu/optee_os/lib/libutee/arch/arm/utee_syscalls_asm.S:115
    2b10:	d2800668 	mov	x8, #0x33                  	// #51
    2b14:	d4000001 	svc	#0x0
    2b18:	d65f03c0 	ret

0000000000002b1c <_utee_storage_obj_trunc>:
_utee_storage_obj_trunc():
/home/zhaoxuyang/Codes/rspi-demo/repo-tsu/optee_os/lib/libutee/arch/arm/utee_syscalls_asm.S:117
    2b1c:	d2800688 	mov	x8, #0x34                  	// #52
    2b20:	d4000001 	svc	#0x0
    2b24:	d65f03c0 	ret

0000000000002b28 <_utee_storage_obj_seek>:
_utee_storage_obj_seek():
/home/zhaoxuyang/Codes/rspi-demo/repo-tsu/optee_os/lib/libutee/arch/arm/utee_syscalls_asm.S:119
    2b28:	d28006a8 	mov	x8, #0x35                  	// #53
    2b2c:	d4000001 	svc	#0x0
    2b30:	d65f03c0 	ret

0000000000002b34 <_utee_cryp_obj_generate_key>:
_utee_cryp_obj_generate_key():
/home/zhaoxuyang/Codes/rspi-demo/repo-tsu/optee_os/lib/libutee/arch/arm/utee_syscalls_asm.S:121
    2b34:	d28006c8 	mov	x8, #0x36                  	// #54
    2b38:	d4000001 	svc	#0x0
    2b3c:	d65f03c0 	ret

0000000000002b40 <_utee_cache_operation>:
_utee_cache_operation():
/home/zhaoxuyang/Codes/rspi-demo/repo-tsu/optee_os/lib/libutee/arch/arm/utee_syscalls_asm.S:124
    2b40:	d28008c8 	mov	x8, #0x46                  	// #70
    2b44:	d4000001 	svc	#0x0
    2b48:	d65f03c0 	ret

0000000000002b4c <_get_fn_array>:
_get_fn_array():
/home/zhaoxuyang/Codes/rspi-demo/repo-tsu/optee_os/lib/libutee/arch/arm/user_ta_entry.c:79
    2b4c:	79403009 	ldrh	w9, [x0, #24]
/home/zhaoxuyang/Codes/rspi-demo/repo-tsu/optee_os/lib/libutee/arch/arm/user_ta_entry.c:90
    2b50:	93407c21 	sxtw	x1, w1
/home/zhaoxuyang/Codes/rspi-demo/repo-tsu/optee_os/lib/libutee/arch/arm/user_ta_entry.c:93
    2b54:	93407c42 	sxtw	x2, w2
/home/zhaoxuyang/Codes/rspi-demo/repo-tsu/optee_os/lib/libutee/arch/arm/user_ta_entry.c:79
    2b58:	d2800007 	mov	x7, #0x0                   	// #0
/home/zhaoxuyang/Codes/rspi-demo/repo-tsu/optee_os/lib/libutee/arch/arm/user_ta_entry.c:80
    2b5c:	d280070a 	mov	x10, #0x38                  	// #56
/home/zhaoxuyang/Codes/rspi-demo/repo-tsu/optee_os/lib/libutee/arch/arm/user_ta_entry.c:79 (discriminator 1)
    2b60:	eb07013f 	cmp	x9, x7
    2b64:	54000048 	b.hi	2b6c <_get_fn_array+0x20>  // b.pmore
/home/zhaoxuyang/Codes/rspi-demo/repo-tsu/optee_os/lib/libutee/arch/arm/user_ta_entry.c:99
    2b68:	d65f03c0 	ret
/home/zhaoxuyang/Codes/rspi-demo/repo-tsu/optee_os/lib/libutee/arch/arm/user_ta_entry.c:80
    2b6c:	9b0a7ce5 	mul	x5, x7, x10
    2b70:	f9400808 	ldr	x8, [x0, #16]
    2b74:	8b050106 	add	x6, x8, x5
/home/zhaoxuyang/Codes/rspi-demo/repo-tsu/optee_os/lib/libutee/arch/arm/user_ta_entry.c:81
    2b78:	b8656905 	ldr	w5, [x8, x5]
    2b7c:	710008bf 	cmp	w5, #0x2
    2b80:	54000060 	b.eq	2b8c <_get_fn_array+0x40>  // b.none
/home/zhaoxuyang/Codes/rspi-demo/repo-tsu/optee_os/lib/libutee/arch/arm/user_ta_entry.c:79
    2b84:	910004e7 	add	x7, x7, #0x1
    2b88:	17fffff6 	b	2b60 <_get_fn_array+0x14>
/home/zhaoxuyang/Codes/rspi-demo/repo-tsu/optee_os/lib/libutee/arch/arm/user_ta_entry.c:84
    2b8c:	f9400008 	ldr	x8, [x0]
    2b90:	f94008c5 	ldr	x5, [x6, #16]
/home/zhaoxuyang/Codes/rspi-demo/repo-tsu/optee_os/lib/libutee/arch/arm/user_ta_entry.c:83
    2b94:	f94014c6 	ldr	x6, [x6, #40]
/home/zhaoxuyang/Codes/rspi-demo/repo-tsu/optee_os/lib/libutee/arch/arm/user_ta_entry.c:84
    2b98:	8b0800a5 	add	x5, x5, x8
/home/zhaoxuyang/Codes/rspi-demo/repo-tsu/optee_os/lib/libutee/arch/arm/user_ta_entry.c:85
    2b9c:	927cecc6 	and	x6, x6, #0xfffffffffffffff0
    2ba0:	8b0500c6 	add	x6, x6, x5
/home/zhaoxuyang/Codes/rspi-demo/repo-tsu/optee_os/lib/libutee/arch/arm/user_ta_entry.c:85 (discriminator 1)
    2ba4:	eb0600bf 	cmp	x5, x6
    2ba8:	54fffee0 	b.eq	2b84 <_get_fn_array+0x38>  // b.none
/home/zhaoxuyang/Codes/rspi-demo/repo-tsu/optee_os/lib/libutee/arch/arm/user_ta_entry.c:86
    2bac:	f9400068 	ldr	x8, [x3]
    2bb0:	b4000068 	cbz	x8, 2bbc <_get_fn_array+0x70>
/home/zhaoxuyang/Codes/rspi-demo/repo-tsu/optee_os/lib/libutee/arch/arm/user_ta_entry.c:86 (discriminator 1)
    2bb4:	f9400088 	ldr	x8, [x4]
    2bb8:	b5fffe68 	cbnz	x8, 2b84 <_get_fn_array+0x38>
/home/zhaoxuyang/Codes/rspi-demo/repo-tsu/optee_os/lib/libutee/arch/arm/user_ta_entry.c:88
    2bbc:	f94000a8 	ldr	x8, [x5]
    2bc0:	b4fffe28 	cbz	x8, 2b84 <_get_fn_array+0x38>
/home/zhaoxuyang/Codes/rspi-demo/repo-tsu/optee_os/lib/libutee/arch/arm/user_ta_entry.c:90
    2bc4:	eb01011f 	cmp	x8, x1
    2bc8:	540000e1 	b.ne	2be4 <_get_fn_array+0x98>  // b.any
/home/zhaoxuyang/Codes/rspi-demo/repo-tsu/optee_os/lib/libutee/arch/arm/user_ta_entry.c:91
    2bcc:	f940000b 	ldr	x11, [x0]
    2bd0:	f94004a8 	ldr	x8, [x5, #8]
    2bd4:	8b0b0108 	add	x8, x8, x11
    2bd8:	f9000068 	str	x8, [x3]
/home/zhaoxuyang/Codes/rspi-demo/repo-tsu/optee_os/lib/libutee/arch/arm/user_ta_entry.c:96 (discriminator 2)
    2bdc:	910040a5 	add	x5, x5, #0x10
/home/zhaoxuyang/Codes/rspi-demo/repo-tsu/optee_os/lib/libutee/arch/arm/user_ta_entry.c:85 (discriminator 2)
    2be0:	17fffff1 	b	2ba4 <_get_fn_array+0x58>
/home/zhaoxuyang/Codes/rspi-demo/repo-tsu/optee_os/lib/libutee/arch/arm/user_ta_entry.c:93
    2be4:	eb02011f 	cmp	x8, x2
    2be8:	54ffffa1 	b.ne	2bdc <_get_fn_array+0x90>  // b.any
/home/zhaoxuyang/Codes/rspi-demo/repo-tsu/optee_os/lib/libutee/arch/arm/user_ta_entry.c:94
    2bec:	f94004a8 	ldr	x8, [x5, #8]
    2bf0:	d343fd08 	lsr	x8, x8, #3
    2bf4:	f9000088 	str	x8, [x4]
    2bf8:	17fffff9 	b	2bdc <_get_fn_array+0x90>

0000000000002bfc <_fini_iterate_phdr_cb>:
_fini_iterate_phdr_cb():
/home/zhaoxuyang/Codes/rspi-demo/repo-tsu/optee_os/lib/libutee/arch/arm/user_ta_entry.c:135
    2bfc:	a9bd7bfd 	stp	x29, x30, [sp, #-48]!
/home/zhaoxuyang/Codes/rspi-demo/repo-tsu/optee_os/lib/libutee/arch/arm/user_ta_entry.c:140
    2c00:	52800382 	mov	w2, #0x1c                  	// #28
    2c04:	52800341 	mov	w1, #0x1a                  	// #26
/home/zhaoxuyang/Codes/rspi-demo/repo-tsu/optee_os/lib/libutee/arch/arm/user_ta_entry.c:135
    2c08:	910003fd 	mov	x29, sp
    2c0c:	f9000bf3 	str	x19, [sp, #16]
/home/zhaoxuyang/Codes/rspi-demo/repo-tsu/optee_os/lib/libutee/arch/arm/user_ta_entry.c:142
    2c10:	d2800033 	mov	x19, #0x1                   	// #1
/home/zhaoxuyang/Codes/rspi-demo/repo-tsu/optee_os/lib/libutee/arch/arm/user_ta_entry.c:140
    2c14:	9100a3e4 	add	x4, sp, #0x28
    2c18:	910083e3 	add	x3, sp, #0x20
/home/zhaoxuyang/Codes/rspi-demo/repo-tsu/optee_os/lib/libutee/arch/arm/user_ta_entry.c:137
    2c1c:	a9027fff 	stp	xzr, xzr, [sp, #32]
/home/zhaoxuyang/Codes/rspi-demo/repo-tsu/optee_os/lib/libutee/arch/arm/user_ta_entry.c:140
    2c20:	97ffffcb 	bl	2b4c <_get_fn_array>
/home/zhaoxuyang/Codes/rspi-demo/repo-tsu/optee_os/lib/libutee/arch/arm/user_ta_entry.c:142 (discriminator 1)
    2c24:	f94017e0 	ldr	x0, [sp, #40]
    2c28:	eb13001f 	cmp	x0, x19
    2c2c:	540000a2 	b.cs	2c40 <_fini_iterate_phdr_cb+0x44>  // b.hs, b.nlast
/home/zhaoxuyang/Codes/rspi-demo/repo-tsu/optee_os/lib/libutee/arch/arm/user_ta_entry.c:146
    2c30:	52800000 	mov	w0, #0x0                   	// #0
    2c34:	f9400bf3 	ldr	x19, [sp, #16]
    2c38:	a8c37bfd 	ldp	x29, x30, [sp], #48
    2c3c:	d65f03c0 	ret
/home/zhaoxuyang/Codes/rspi-demo/repo-tsu/optee_os/lib/libutee/arch/arm/user_ta_entry.c:143 (discriminator 3)
    2c40:	f94013e1 	ldr	x1, [sp, #32]
    2c44:	cb130000 	sub	x0, x0, x19
/home/zhaoxuyang/Codes/rspi-demo/repo-tsu/optee_os/lib/libutee/arch/arm/user_ta_entry.c:142 (discriminator 3)
    2c48:	91000673 	add	x19, x19, #0x1
/home/zhaoxuyang/Codes/rspi-demo/repo-tsu/optee_os/lib/libutee/arch/arm/user_ta_entry.c:143 (discriminator 3)
    2c4c:	f8607820 	ldr	x0, [x1, x0, lsl #3]
    2c50:	d63f0000 	blr	x0
/home/zhaoxuyang/Codes/rspi-demo/repo-tsu/optee_os/lib/libutee/arch/arm/user_ta_entry.c:142 (discriminator 3)
    2c54:	17fffff4 	b	2c24 <_fini_iterate_phdr_cb+0x28>

0000000000002c58 <ta_header_get_session>:
ta_header_get_session():
/home/zhaoxuyang/Codes/rspi-demo/repo-tsu/optee_os/lib/libutee/arch/arm/user_ta_entry.c:183
    2c58:	2a0003e1 	mov	w1, w0
/home/zhaoxuyang/Codes/rspi-demo/repo-tsu/optee_os/lib/libutee/arch/arm/user_ta_entry.c:186
    2c5c:	f0000080 	adrp	x0, 15000 <_DYNAMIC>
    2c60:	f9420800 	ldr	x0, [x0, #1040]
/home/zhaoxuyang/Codes/rspi-demo/repo-tsu/optee_os/lib/libutee/arch/arm/user_ta_entry.c:186 (discriminator 1)
    2c64:	b5000040 	cbnz	x0, 2c6c <ta_header_get_session+0x14>
/home/zhaoxuyang/Codes/rspi-demo/repo-tsu/optee_os/lib/libutee/arch/arm/user_ta_entry.c:191
    2c68:	d65f03c0 	ret
/home/zhaoxuyang/Codes/rspi-demo/repo-tsu/optee_os/lib/libutee/arch/arm/user_ta_entry.c:187
    2c6c:	b9400002 	ldr	w2, [x0]
    2c70:	6b01005f 	cmp	w2, w1
    2c74:	54ffffa0 	b.eq	2c68 <ta_header_get_session+0x10>  // b.none
/home/zhaoxuyang/Codes/rspi-demo/repo-tsu/optee_os/lib/libutee/arch/arm/user_ta_entry.c:186 (discriminator 2)
    2c78:	f9400800 	ldr	x0, [x0, #16]
    2c7c:	17fffffa 	b	2c64 <ta_header_get_session+0xc>

0000000000002c80 <to_utee_params>:
to_utee_params():
/home/zhaoxuyang/Codes/rspi-demo/repo-tsu/optee_os/lib/libutee/arch/arm/user_ta_entry.c:245
    2c80:	2a0103e3 	mov	w3, w1
    2c84:	f8008403 	str	x3, [x0], #8
    2c88:	52800003 	mov	w3, #0x0                   	// #0
/home/zhaoxuyang/Codes/rspi-demo/repo-tsu/optee_os/lib/libutee/arch/arm/user_ta_entry.c:247
    2c8c:	1ac32425 	lsr	w5, w1, w3
    2c90:	12000ca4 	and	w4, w5, #0xf
    2c94:	721e04bf 	tst	w5, #0xc
    2c98:	54000181 	b.ne	2cc8 <to_utee_params+0x48>  // b.any
    2c9c:	340001c4 	cbz	w4, 2cd4 <to_utee_params+0x54>
/home/zhaoxuyang/Codes/rspi-demo/repo-tsu/optee_os/lib/libutee/arch/arm/user_ta_entry.c:251
    2ca0:	b9400044 	ldr	w4, [x2]
    2ca4:	f9000004 	str	x4, [x0]
/home/zhaoxuyang/Codes/rspi-demo/repo-tsu/optee_os/lib/libutee/arch/arm/user_ta_entry.c:252
    2ca8:	b9400444 	ldr	w4, [x2, #4]
/home/zhaoxuyang/Codes/rspi-demo/repo-tsu/optee_os/lib/libutee/arch/arm/user_ta_entry.c:258
    2cac:	f9000404 	str	x4, [x0, #8]
/home/zhaoxuyang/Codes/rspi-demo/repo-tsu/optee_os/lib/libutee/arch/arm/user_ta_entry.c:246 (discriminator 2)
    2cb0:	11001063 	add	w3, w3, #0x4
    2cb4:	91004042 	add	x2, x2, #0x10
    2cb8:	91004000 	add	x0, x0, #0x10
    2cbc:	7100407f 	cmp	w3, #0x10
    2cc0:	54fffe61 	b.ne	2c8c <to_utee_params+0xc>  // b.any
/home/zhaoxuyang/Codes/rspi-demo/repo-tsu/optee_os/lib/libutee/arch/arm/user_ta_entry.c:266
    2cc4:	d65f03c0 	ret
/home/zhaoxuyang/Codes/rspi-demo/repo-tsu/optee_os/lib/libutee/arch/arm/user_ta_entry.c:247
    2cc8:	51001484 	sub	w4, w4, #0x5
    2ccc:	7100089f 	cmp	w4, #0x2
    2cd0:	54000069 	b.ls	2cdc <to_utee_params+0x5c>  // b.plast
/home/zhaoxuyang/Codes/rspi-demo/repo-tsu/optee_os/lib/libutee/arch/arm/user_ta_entry.c:262
    2cd4:	a9007c1f 	stp	xzr, xzr, [x0]
/home/zhaoxuyang/Codes/rspi-demo/repo-tsu/optee_os/lib/libutee/arch/arm/user_ta_entry.c:263
    2cd8:	17fffff6 	b	2cb0 <to_utee_params+0x30>
/home/zhaoxuyang/Codes/rspi-demo/repo-tsu/optee_os/lib/libutee/arch/arm/user_ta_entry.c:257
    2cdc:	f9400044 	ldr	x4, [x2]
    2ce0:	f9000004 	str	x4, [x0]
/home/zhaoxuyang/Codes/rspi-demo/repo-tsu/optee_os/lib/libutee/arch/arm/user_ta_entry.c:258
    2ce4:	b9400844 	ldr	w4, [x2, #8]
    2ce8:	17fffff1 	b	2cac <to_utee_params+0x2c>

0000000000002cec <from_utee_params>:
from_utee_params():
/home/zhaoxuyang/Codes/rspi-demo/repo-tsu/optee_os/lib/libutee/arch/arm/user_ta_entry.c:273
    2cec:	f8408445 	ldr	x5, [x2], #8
    2cf0:	52800003 	mov	w3, #0x0                   	// #0
    2cf4:	2a0503e9 	mov	w9, w5
/home/zhaoxuyang/Codes/rspi-demo/repo-tsu/optee_os/lib/libutee/arch/arm/user_ta_entry.c:279
    2cf8:	1ac32528 	lsr	w8, w9, w3
    2cfc:	12000d04 	and	w4, w8, #0xf
    2d00:	721e051f 	tst	w8, #0xc
/home/zhaoxuyang/Codes/rspi-demo/repo-tsu/optee_os/lib/libutee/arch/arm/user_ta_entry.c:277
    2d04:	a9401847 	ldp	x7, x6, [x2]
/home/zhaoxuyang/Codes/rspi-demo/repo-tsu/optee_os/lib/libutee/arch/arm/user_ta_entry.c:279
    2d08:	54000081 	b.ne	2d18 <from_utee_params+0x2c>  // b.any
    2d0c:	340000c4 	cbz	w4, 2d24 <from_utee_params+0x38>
/home/zhaoxuyang/Codes/rspi-demo/repo-tsu/optee_os/lib/libutee/arch/arm/user_ta_entry.c:284
    2d10:	29001807 	stp	w7, w6, [x0]
/home/zhaoxuyang/Codes/rspi-demo/repo-tsu/optee_os/lib/libutee/arch/arm/user_ta_entry.c:285
    2d14:	14000004 	b	2d24 <from_utee_params+0x38>
/home/zhaoxuyang/Codes/rspi-demo/repo-tsu/optee_os/lib/libutee/arch/arm/user_ta_entry.c:279
    2d18:	51001484 	sub	w4, w4, #0x5
    2d1c:	7100089f 	cmp	w4, #0x2
    2d20:	54000109 	b.ls	2d40 <from_utee_params+0x54>  // b.plast
/home/zhaoxuyang/Codes/rspi-demo/repo-tsu/optee_os/lib/libutee/arch/arm/user_ta_entry.c:275 (discriminator 2)
    2d24:	11001063 	add	w3, w3, #0x4
    2d28:	91004042 	add	x2, x2, #0x10
    2d2c:	91004000 	add	x0, x0, #0x10
    2d30:	7100407f 	cmp	w3, #0x10
    2d34:	54fffe21 	b.ne	2cf8 <from_utee_params+0xc>  // b.any
/home/zhaoxuyang/Codes/rspi-demo/repo-tsu/optee_os/lib/libutee/arch/arm/user_ta_entry.c:298
    2d38:	b9000025 	str	w5, [x1]
/home/zhaoxuyang/Codes/rspi-demo/repo-tsu/optee_os/lib/libutee/arch/arm/user_ta_entry.c:299
    2d3c:	d65f03c0 	ret
/home/zhaoxuyang/Codes/rspi-demo/repo-tsu/optee_os/lib/libutee/arch/arm/user_ta_entry.c:289
    2d40:	f9000007 	str	x7, [x0]
/home/zhaoxuyang/Codes/rspi-demo/repo-tsu/optee_os/lib/libutee/arch/arm/user_ta_entry.c:290
    2d44:	b9000806 	str	w6, [x0, #8]
/home/zhaoxuyang/Codes/rspi-demo/repo-tsu/optee_os/lib/libutee/arch/arm/user_ta_entry.c:291
    2d48:	17fffff7 	b	2d24 <from_utee_params+0x38>

0000000000002d4c <_init_iterate_phdr_cb>:
_init_iterate_phdr_cb():
/home/zhaoxuyang/Codes/rspi-demo/repo-tsu/optee_os/lib/libutee/arch/arm/user_ta_entry.c:55
    2d4c:	a9bd7bfd 	stp	x29, x30, [sp, #-48]!
    2d50:	910003fd 	mov	x29, sp
    2d54:	a90153f3 	stp	x19, x20, [sp, #16]
    2d58:	aa0203f4 	mov	x20, x2
    2d5c:	f90013f5 	str	x21, [sp, #32]
    2d60:	aa0003f5 	mov	x21, x0
/home/zhaoxuyang/Codes/rspi-demo/repo-tsu/optee_os/lib/libutee/arch/arm/user_ta_entry.c:59
    2d64:	d2800a00 	mov	x0, #0x50                  	// #80
    2d68:	94002d21 	bl	e1ec <malloc>
/home/zhaoxuyang/Codes/rspi-demo/repo-tsu/optee_os/lib/libutee/arch/arm/user_ta_entry.c:60
    2d6c:	b5000140 	cbnz	x0, 2d94 <_init_iterate_phdr_cb+0x48>
/home/zhaoxuyang/Codes/rspi-demo/repo-tsu/optee_os/lib/libutee/arch/arm/user_ta_entry.c:61
    2d70:	b0000084 	adrp	x4, 13000 <SB5+0x84>
    2d74:	b0000080 	adrp	x0, 13000 <SB5+0x84>
    2d78:	91189484 	add	x4, x4, #0x625
    2d7c:	9118f800 	add	x0, x0, #0x63e
    2d80:	52800023 	mov	w3, #0x1                   	// #1
    2d84:	52800022 	mov	w2, #0x1                   	// #1
    2d88:	528007a1 	mov	w1, #0x3d                  	// #61
    2d8c:	97fffad6 	bl	18e4 <trace_printf>
/home/zhaoxuyang/Codes/rspi-demo/repo-tsu/optee_os/lib/libutee/arch/arm/user_ta_entry.c:62
    2d90:	9400010e 	bl	31c8 <abort>
    2d94:	aa0003f3 	mov	x19, x0
/home/zhaoxuyang/Codes/rspi-demo/repo-tsu/optee_os/lib/libutee/arch/arm/user_ta_entry.c:64
    2d98:	aa1503e1 	mov	x1, x21
    2d9c:	d2800802 	mov	x2, #0x40                  	// #64
    2da0:	97fff4a0 	bl	20 <memcpy>
/home/zhaoxuyang/Codes/rspi-demo/repo-tsu/optee_os/lib/libutee/arch/arm/user_ta_entry.c:65
    2da4:	f0000080 	adrp	x0, 15000 <_DYNAMIC>
    2da8:	91104000 	add	x0, x0, #0x410
/home/zhaoxuyang/Codes/rspi-demo/repo-tsu/optee_os/lib/libutee/arch/arm/user_ta_entry.c:68
    2dac:	f94013f5 	ldr	x21, [sp, #32]
/home/zhaoxuyang/Codes/rspi-demo/repo-tsu/optee_os/lib/libutee/arch/arm/user_ta_entry.c:65
    2db0:	f9400c01 	ldr	x1, [x0, #24]
    2db4:	a904067f 	stp	xzr, x1, [x19, #64]
    2db8:	f9000033 	str	x19, [x1]
    2dbc:	91010273 	add	x19, x19, #0x40
    2dc0:	f9000c13 	str	x19, [x0, #24]
/home/zhaoxuyang/Codes/rspi-demo/repo-tsu/optee_os/lib/libutee/arch/arm/user_ta_entry.c:66
    2dc4:	f9400280 	ldr	x0, [x20]
    2dc8:	91000400 	add	x0, x0, #0x1
    2dcc:	f9000280 	str	x0, [x20]
/home/zhaoxuyang/Codes/rspi-demo/repo-tsu/optee_os/lib/libutee/arch/arm/user_ta_entry.c:68
    2dd0:	52800000 	mov	w0, #0x0                   	// #0
    2dd4:	a94153f3 	ldp	x19, x20, [sp, #16]
    2dd8:	a8c37bfd 	ldp	x29, x30, [sp], #48
    2ddc:	d65f03c0 	ret

0000000000002de0 <ta_header_save_params.part.0>:
ta_header_save_params():
/home/zhaoxuyang/Codes/rspi-demo/repo-tsu/optee_os/lib/libutee/arch/arm/user_ta_entry.c:179
